
rsort-loops-unrolled.riscv:     file format elf64-littleriscv


Disassembly of section .text:

0000000000000000 <_start>:
       0:	00000093          	li	ra,0
       4:	00000113          	li	sp,0
       8:	00000193          	li	gp,0
       c:	00000213          	li	tp,0
      10:	00000293          	li	t0,0
      14:	00000313          	li	t1,0
      18:	00000393          	li	t2,0
      1c:	00000413          	li	s0,0
      20:	00000493          	li	s1,0
      24:	00000513          	li	a0,0
      28:	00000593          	li	a1,0
      2c:	00000613          	li	a2,0
      30:	00000693          	li	a3,0
      34:	00000713          	li	a4,0
      38:	00000793          	li	a5,0
      3c:	00000813          	li	a6,0
      40:	00000893          	li	a7,0
      44:	00000913          	li	s2,0
      48:	00000993          	li	s3,0
      4c:	00000a13          	li	s4,0
      50:	00000a93          	li	s5,0
      54:	00000b13          	li	s6,0
      58:	00000b93          	li	s7,0
      5c:	00000c13          	li	s8,0
      60:	00000c93          	li	s9,0
      64:	00000d13          	li	s10,0
      68:	00000d93          	li	s11,0
      6c:	00000e13          	li	t3,0
      70:	00000e93          	li	t4,0
      74:	00000f13          	li	t5,0
      78:	00000f93          	li	t6,0
      7c:	00007117          	auipc	sp,0x7
      80:	1ac10113          	addi	sp,sp,428 # 7228 <scratch.0>
      84:	615000ef          	jal	ra,e98 <main>
      88:	77d0006f          	j	1004 <end>

000000000000008c <sort>:
      8c:	81010113          	addi	sp,sp,-2032
      90:	79b13423          	sd	s11,1928(sp)
      94:	00251d93          	slli	s11,a0,0x2
      98:	7c913c23          	sd	s1,2008(sp)
      9c:	ff0d8793          	addi	a5,s11,-16
      a0:	000014b7          	lui	s1,0x1
      a4:	7e813023          	sd	s0,2016(sp)
      a8:	7d213823          	sd	s2,2000(sp)
      ac:	7d313423          	sd	s3,1992(sp)
      b0:	7d413023          	sd	s4,1984(sp)
      b4:	7b513c23          	sd	s5,1976(sp)
      b8:	7b613823          	sd	s6,1968(sp)
      bc:	7b713423          	sd	s7,1960(sp)
      c0:	7b813023          	sd	s8,1952(sp)
      c4:	79913c23          	sd	s9,1944(sp)
      c8:	79a13823          	sd	s10,1936(sp)
      cc:	fff7c413          	not	s0,a5
      d0:	7e113423          	sd	ra,2024(sp)
      d4:	80048493          	addi	s1,s1,-2048 # 800 <sort+0x774>
      d8:	f8010113          	addi	sp,sp,-128
      dc:	ff3d8913          	addi	s2,s11,-13
      e0:	00010793          	mv	a5,sp
      e4:	00058a13          	mv	s4,a1
      e8:	00060b13          	mv	s6,a2
      ec:	ff4d8993          	addi	s3,s11,-12
      f0:	ffcd8a93          	addi	s5,s11,-4
      f4:	01078d13          	addi	s10,a5,16
      f8:	00058b93          	mv	s7,a1
      fc:	00000c13          	li	s8,0
     100:	00495913          	srli	s2,s2,0x4
     104:	00978cb3          	add	s9,a5,s1
     108:	ff047413          	andi	s0,s0,-16
     10c:	00078513          	mv	a0,a5
     110:	00048613          	mv	a2,s1
     114:	00000593          	li	a1,0
     118:	245000ef          	jal	ra,b5c <memset>
     11c:	013b8833          	add	a6,s7,s3
     120:	00050793          	mv	a5,a0
     124:	000c051b          	sext.w	a0,s8
     128:	7d0bfc63          	bgeu	s7,a6,900 <sort+0x874>
     12c:	000ba583          	lw	a1,0(s7)
     130:	004ba603          	lw	a2,4(s7)
     134:	008ba083          	lw	ra,8(s7)
     138:	00a5d2bb          	srlw	t0,a1,a0
     13c:	0ff2f313          	zext.b	t1,t0
     140:	00331393          	slli	t2,t1,0x3
     144:	00778e33          	add	t3,a5,t2
     148:	000e3883          	ld	a7,0(t3)
     14c:	00a6573b          	srlw	a4,a2,a0
     150:	0ff77e93          	zext.b	t4,a4
     154:	00188f13          	addi	t5,a7,1
     158:	003e9f93          	slli	t6,t4,0x3
     15c:	00cba283          	lw	t0,12(s7)
     160:	01f78633          	add	a2,a5,t6
     164:	01ee3023          	sd	t5,0(t3)
     168:	00063583          	ld	a1,0(a2)
     16c:	00a0d6bb          	srlw	a3,ra,a0
     170:	0ff6f093          	zext.b	ra,a3
     174:	00158313          	addi	t1,a1,1
     178:	00309393          	slli	t2,ra,0x3
     17c:	00663023          	sd	t1,0(a2)
     180:	00778e33          	add	t3,a5,t2
     184:	000e3883          	ld	a7,0(t3)
     188:	00a2d73b          	srlw	a4,t0,a0
     18c:	0ff77e93          	zext.b	t4,a4
     190:	00188f13          	addi	t5,a7,1
     194:	003e9f93          	slli	t6,t4,0x3
     198:	01ee3023          	sd	t5,0(t3)
     19c:	01f782b3          	add	t0,a5,t6
     1a0:	0002b603          	ld	a2,0(t0)
     1a4:	fffbc593          	not	a1,s7
     1a8:	00b806b3          	add	a3,a6,a1
     1ac:	00160093          	addi	ra,a2,1
     1b0:	0046d313          	srli	t1,a3,0x4
     1b4:	0012b023          	sd	ra,0(t0)
     1b8:	010b8713          	addi	a4,s7,16
     1bc:	00137393          	andi	t2,t1,1
     1c0:	19077c63          	bgeu	a4,a6,358 <sort+0x2cc>
     1c4:	08038663          	beqz	t2,250 <sort+0x1c4>
     1c8:	00072e03          	lw	t3,0(a4)
     1cc:	00472e83          	lw	t4,4(a4)
     1d0:	00872f03          	lw	t5,8(a4)
     1d4:	00ae58bb          	srlw	a7,t3,a0
     1d8:	0ff8ff93          	zext.b	t6,a7
     1dc:	003f9293          	slli	t0,t6,0x3
     1e0:	00578633          	add	a2,a5,t0
     1e4:	00063683          	ld	a3,0(a2)
     1e8:	00aed5bb          	srlw	a1,t4,a0
     1ec:	0ff5f093          	zext.b	ra,a1
     1f0:	00168313          	addi	t1,a3,1
     1f4:	00309393          	slli	t2,ra,0x3
     1f8:	00c72e03          	lw	t3,12(a4)
     1fc:	00778eb3          	add	t4,a5,t2
     200:	00663023          	sd	t1,0(a2)
     204:	000eb883          	ld	a7,0(t4)
     208:	00af573b          	srlw	a4,t5,a0
     20c:	0ff77f13          	zext.b	t5,a4
     210:	00188f93          	addi	t6,a7,1
     214:	003f1293          	slli	t0,t5,0x3
     218:	01feb023          	sd	t6,0(t4)
     21c:	005785b3          	add	a1,a5,t0
     220:	0005b603          	ld	a2,0(a1)
     224:	00ae56bb          	srlw	a3,t3,a0
     228:	0ff6f093          	zext.b	ra,a3
     22c:	00160313          	addi	t1,a2,1
     230:	00309393          	slli	t2,ra,0x3
     234:	0065b023          	sd	t1,0(a1)
     238:	00778e33          	add	t3,a5,t2
     23c:	000e3e83          	ld	t4,0(t3)
     240:	020b8713          	addi	a4,s7,32
     244:	001e8893          	addi	a7,t4,1
     248:	011e3023          	sd	a7,0(t3)
     24c:	11077663          	bgeu	a4,a6,358 <sort+0x2cc>
     250:	00072f03          	lw	t5,0(a4)
     254:	00472f83          	lw	t6,4(a4)
     258:	00872283          	lw	t0,8(a4)
     25c:	00af55bb          	srlw	a1,t5,a0
     260:	0ff5f613          	zext.b	a2,a1
     264:	00361693          	slli	a3,a2,0x3
     268:	00d780b3          	add	ra,a5,a3
     26c:	0000b303          	ld	t1,0(ra)
     270:	00afd3bb          	srlw	t2,t6,a0
     274:	0ff3fe13          	zext.b	t3,t2
     278:	00130e93          	addi	t4,t1,1
     27c:	003e1893          	slli	a7,t3,0x3
     280:	00c72f03          	lw	t5,12(a4)
     284:	01178fb3          	add	t6,a5,a7
     288:	01d0b023          	sd	t4,0(ra)
     28c:	000fb583          	ld	a1,0(t6)
     290:	00a2d2bb          	srlw	t0,t0,a0
     294:	0ff2f613          	zext.b	a2,t0
     298:	00158693          	addi	a3,a1,1
     29c:	00361093          	slli	ra,a2,0x3
     2a0:	00dfb023          	sd	a3,0(t6)
     2a4:	00178333          	add	t1,a5,ra
     2a8:	00033383          	ld	t2,0(t1)
     2ac:	00af5e3b          	srlw	t3,t5,a0
     2b0:	0ffe7e93          	zext.b	t4,t3
     2b4:	01072883          	lw	a7,16(a4)
     2b8:	00138f13          	addi	t5,t2,1
     2bc:	003e9f93          	slli	t6,t4,0x3
     2c0:	01e33023          	sd	t5,0(t1)
     2c4:	01f782b3          	add	t0,a5,t6
     2c8:	0002b603          	ld	a2,0(t0)
     2cc:	00a8d5bb          	srlw	a1,a7,a0
     2d0:	0ff5f693          	zext.b	a3,a1
     2d4:	01472083          	lw	ra,20(a4)
     2d8:	00160313          	addi	t1,a2,1
     2dc:	00369393          	slli	t2,a3,0x3
     2e0:	0062b023          	sd	t1,0(t0)
     2e4:	00778e33          	add	t3,a5,t2
     2e8:	000e3e83          	ld	t4,0(t3)
     2ec:	00a0d8bb          	srlw	a7,ra,a0
     2f0:	0ff8ff13          	zext.b	t5,a7
     2f4:	01872f83          	lw	t6,24(a4)
     2f8:	001e8293          	addi	t0,t4,1
     2fc:	003f1613          	slli	a2,t5,0x3
     300:	01c72683          	lw	a3,28(a4)
     304:	00c785b3          	add	a1,a5,a2
     308:	005e3023          	sd	t0,0(t3)
     30c:	0005b083          	ld	ra,0(a1)
     310:	00afd33b          	srlw	t1,t6,a0
     314:	0ff37393          	zext.b	t2,t1
     318:	00108e13          	addi	t3,ra,1
     31c:	00339e93          	slli	t4,t2,0x3
     320:	01c5b023          	sd	t3,0(a1)
     324:	01d788b3          	add	a7,a5,t4
     328:	0008bf03          	ld	t5,0(a7)
     32c:	00a6dfbb          	srlw	t6,a3,a0
     330:	0ffff293          	zext.b	t0,t6
     334:	001f0613          	addi	a2,t5,1
     338:	00329693          	slli	a3,t0,0x3
     33c:	00c8b023          	sd	a2,0(a7)
     340:	00d785b3          	add	a1,a5,a3
     344:	0005b083          	ld	ra,0(a1)
     348:	02070713          	addi	a4,a4,32
     34c:	00108313          	addi	t1,ra,1
     350:	0065b023          	sd	t1,0(a1)
     354:	ef076ee3          	bltu	a4,a6,250 <sort+0x1c4>
     358:	00190813          	addi	a6,s2,1
     35c:	00481513          	slli	a0,a6,0x4
     360:	00ab86b3          	add	a3,s7,a0
     364:	01bb83b3          	add	t2,s7,s11
     368:	000c0e1b          	sext.w	t3,s8
     36c:	1476f463          	bgeu	a3,t2,4b4 <sort+0x428>
     370:	0006a703          	lw	a4,0(a3)
     374:	fff6ce93          	not	t4,a3
     378:	01d38f33          	add	t5,t2,t4
     37c:	01c758bb          	srlw	a7,a4,t3
     380:	0ff8ff93          	zext.b	t6,a7
     384:	003f9293          	slli	t0,t6,0x3
     388:	005780b3          	add	ra,a5,t0
     38c:	0000b303          	ld	t1,0(ra)
     390:	002f5613          	srli	a2,t5,0x2
     394:	00468593          	addi	a1,a3,4
     398:	00130813          	addi	a6,t1,1
     39c:	0100b023          	sd	a6,0(ra)
     3a0:	00367513          	andi	a0,a2,3
     3a4:	1075f863          	bgeu	a1,t2,4b4 <sort+0x428>
     3a8:	08050263          	beqz	a0,42c <sort+0x3a0>
     3ac:	00100713          	li	a4,1
     3b0:	04e50a63          	beq	a0,a4,404 <sort+0x378>
     3b4:	00200e93          	li	t4,2
     3b8:	03d50463          	beq	a0,t4,3e0 <sort+0x354>
     3bc:	0005af03          	lw	t5,0(a1)
     3c0:	00868593          	addi	a1,a3,8
     3c4:	01cf56bb          	srlw	a3,t5,t3
     3c8:	0ff6f893          	zext.b	a7,a3
     3cc:	00389f93          	slli	t6,a7,0x3
     3d0:	01f782b3          	add	t0,a5,t6
     3d4:	0002b083          	ld	ra,0(t0)
     3d8:	00108313          	addi	t1,ra,1
     3dc:	0062b023          	sd	t1,0(t0)
     3e0:	0005a603          	lw	a2,0(a1)
     3e4:	00458593          	addi	a1,a1,4
     3e8:	01c6583b          	srlw	a6,a2,t3
     3ec:	0ff87513          	zext.b	a0,a6
     3f0:	00351713          	slli	a4,a0,0x3
     3f4:	00e78eb3          	add	t4,a5,a4
     3f8:	000ebf03          	ld	t5,0(t4)
     3fc:	001f0693          	addi	a3,t5,1
     400:	00deb023          	sd	a3,0(t4)
     404:	0005a883          	lw	a7,0(a1)
     408:	00458593          	addi	a1,a1,4
     40c:	01c8dfbb          	srlw	t6,a7,t3
     410:	0ffff293          	zext.b	t0,t6
     414:	00329093          	slli	ra,t0,0x3
     418:	00178333          	add	t1,a5,ra
     41c:	00033603          	ld	a2,0(t1)
     420:	00160813          	addi	a6,a2,1
     424:	01033023          	sd	a6,0(t1)
     428:	0875f663          	bgeu	a1,t2,4b4 <sort+0x428>
     42c:	0005a503          	lw	a0,0(a1)
     430:	0045ae83          	lw	t4,4(a1)
     434:	0085af03          	lw	t5,8(a1)
     438:	01c5573b          	srlw	a4,a0,t3
     43c:	0ff77693          	zext.b	a3,a4
     440:	00369893          	slli	a7,a3,0x3
     444:	01178fb3          	add	t6,a5,a7
     448:	000fb283          	ld	t0,0(t6)
     44c:	01ced0bb          	srlw	ra,t4,t3
     450:	0ff0f313          	zext.b	t1,ra
     454:	00128813          	addi	a6,t0,1
     458:	00331613          	slli	a2,t1,0x3
     45c:	010fb023          	sd	a6,0(t6)
     460:	00c78533          	add	a0,a5,a2
     464:	00053e83          	ld	t4,0(a0)
     468:	01cf5f3b          	srlw	t5,t5,t3
     46c:	0fff7693          	zext.b	a3,t5
     470:	00c5a703          	lw	a4,12(a1)
     474:	001e8893          	addi	a7,t4,1
     478:	00369f93          	slli	t6,a3,0x3
     47c:	01153023          	sd	a7,0(a0)
     480:	01f782b3          	add	t0,a5,t6
     484:	0002b083          	ld	ra,0(t0)
     488:	01c7533b          	srlw	t1,a4,t3
     48c:	0ff37813          	zext.b	a6,t1
     490:	00108613          	addi	a2,ra,1
     494:	00381513          	slli	a0,a6,0x3
     498:	00c2b023          	sd	a2,0(t0)
     49c:	00a78eb3          	add	t4,a5,a0
     4a0:	000ebf03          	ld	t5,0(t4)
     4a4:	01058593          	addi	a1,a1,16
     4a8:	001f0693          	addi	a3,t5,1
     4ac:	00deb023          	sd	a3,0(t4)
     4b0:	f675eee3          	bltu	a1,t2,42c <sort+0x3a0>
     4b4:	0087b383          	ld	t2,8(a5)
     4b8:	0007be03          	ld	t3,0(a5)
     4bc:	41ac85b3          	sub	a1,s9,s10
     4c0:	ff058713          	addi	a4,a1,-16
     4c4:	00475893          	srli	a7,a4,0x4
     4c8:	01c38633          	add	a2,t2,t3
     4cc:	00188f93          	addi	t6,a7,1
     4d0:	00c7b423          	sd	a2,8(a5)
     4d4:	007ff293          	andi	t0,t6,7
     4d8:	000d0713          	mv	a4,s10
     4dc:	0e028e63          	beqz	t0,5d8 <sort+0x54c>
     4e0:	00100093          	li	ra,1
     4e4:	0c128a63          	beq	t0,ra,5b8 <sort+0x52c>
     4e8:	00200313          	li	t1,2
     4ec:	0a628863          	beq	t0,t1,59c <sort+0x510>
     4f0:	00300813          	li	a6,3
     4f4:	09028663          	beq	t0,a6,580 <sort+0x4f4>
     4f8:	00400513          	li	a0,4
     4fc:	06a28463          	beq	t0,a0,564 <sort+0x4d8>
     500:	00500e93          	li	t4,5
     504:	05d28263          	beq	t0,t4,548 <sort+0x4bc>
     508:	00600f13          	li	t5,6
     50c:	03e28063          	beq	t0,t5,52c <sort+0x4a0>
     510:	000d3683          	ld	a3,0(s10)
     514:	008d3383          	ld	t2,8(s10)
     518:	010d0713          	addi	a4,s10,16
     51c:	00d60e33          	add	t3,a2,a3
     520:	007e0633          	add	a2,t3,t2
     524:	01cd3023          	sd	t3,0(s10)
     528:	00cd3423          	sd	a2,8(s10)
     52c:	00073883          	ld	a7,0(a4)
     530:	00873583          	ld	a1,8(a4)
     534:	01070713          	addi	a4,a4,16
     538:	01160fb3          	add	t6,a2,a7
     53c:	00bf8633          	add	a2,t6,a1
     540:	fff73823          	sd	t6,-16(a4)
     544:	fec73c23          	sd	a2,-8(a4)
     548:	00073283          	ld	t0,0(a4)
     54c:	00873083          	ld	ra,8(a4)
     550:	01070713          	addi	a4,a4,16
     554:	00560333          	add	t1,a2,t0
     558:	00130633          	add	a2,t1,ra
     55c:	fe673823          	sd	t1,-16(a4)
     560:	fec73c23          	sd	a2,-8(a4)
     564:	00073803          	ld	a6,0(a4)
     568:	00873503          	ld	a0,8(a4)
     56c:	01070713          	addi	a4,a4,16
     570:	01060eb3          	add	t4,a2,a6
     574:	00ae8633          	add	a2,t4,a0
     578:	ffd73823          	sd	t4,-16(a4)
     57c:	fec73c23          	sd	a2,-8(a4)
     580:	00073f03          	ld	t5,0(a4)
     584:	00873383          	ld	t2,8(a4)
     588:	01070713          	addi	a4,a4,16
     58c:	01e606b3          	add	a3,a2,t5
     590:	00768633          	add	a2,a3,t2
     594:	fed73823          	sd	a3,-16(a4)
     598:	fec73c23          	sd	a2,-8(a4)
     59c:	00073e03          	ld	t3,0(a4)
     5a0:	00873883          	ld	a7,8(a4)
     5a4:	01070713          	addi	a4,a4,16
     5a8:	01c605b3          	add	a1,a2,t3
     5ac:	01158633          	add	a2,a1,a7
     5b0:	feb73823          	sd	a1,-16(a4)
     5b4:	fec73c23          	sd	a2,-8(a4)
     5b8:	00073f83          	ld	t6,0(a4)
     5bc:	00873283          	ld	t0,8(a4)
     5c0:	01070713          	addi	a4,a4,16
     5c4:	01f600b3          	add	ra,a2,t6
     5c8:	00508633          	add	a2,ra,t0
     5cc:	fe173823          	sd	ra,-16(a4)
     5d0:	fec73c23          	sd	a2,-8(a4)
     5d4:	0f970063          	beq	a4,s9,6b4 <sort+0x628>
     5d8:	00073303          	ld	t1,0(a4)
     5dc:	00873803          	ld	a6,8(a4)
     5e0:	01073e83          	ld	t4,16(a4)
     5e4:	01873683          	ld	a3,24(a4)
     5e8:	00660533          	add	a0,a2,t1
     5ec:	02073583          	ld	a1,32(a4)
     5f0:	01050f33          	add	t5,a0,a6
     5f4:	02873303          	ld	t1,40(a4)
     5f8:	01df03b3          	add	t2,t5,t4
     5fc:	00a73023          	sd	a0,0(a4)
     600:	00d38e33          	add	t3,t2,a3
     604:	03073503          	ld	a0,48(a4)
     608:	00be00b3          	add	ra,t3,a1
     60c:	00608833          	add	a6,ra,t1
     610:	01e73423          	sd	t5,8(a4)
     614:	01c73c23          	sd	t3,24(a4)
     618:	02173023          	sd	ra,32(a4)
     61c:	00773823          	sd	t2,16(a4)
     620:	03073423          	sd	a6,40(a4)
     624:	03070893          	addi	a7,a4,48
     628:	04070f93          	addi	t6,a4,64
     62c:	05070293          	addi	t0,a4,80
     630:	06070613          	addi	a2,a4,96
     634:	07070e93          	addi	t4,a4,112
     638:	00a80f33          	add	t5,a6,a0
     63c:	03e73823          	sd	t5,48(a4)
     640:	0088b383          	ld	t2,8(a7)
     644:	08070713          	addi	a4,a4,128
     648:	007f06b3          	add	a3,t5,t2
     64c:	00d8b423          	sd	a3,8(a7)
     650:	fc073883          	ld	a7,-64(a4)
     654:	01168e33          	add	t3,a3,a7
     658:	fdc73023          	sd	t3,-64(a4)
     65c:	008fb583          	ld	a1,8(t6)
     660:	00be00b3          	add	ra,t3,a1
     664:	001fb423          	sd	ra,8(t6)
     668:	fd073f83          	ld	t6,-48(a4)
     66c:	01f08333          	add	t1,ra,t6
     670:	fc673823          	sd	t1,-48(a4)
     674:	0082b803          	ld	a6,8(t0)
     678:	01030f33          	add	t5,t1,a6
     67c:	01e2b423          	sd	t5,8(t0)
     680:	fe073283          	ld	t0,-32(a4)
     684:	005f03b3          	add	t2,t5,t0
     688:	fe773023          	sd	t2,-32(a4)
     68c:	00863503          	ld	a0,8(a2)
     690:	00a386b3          	add	a3,t2,a0
     694:	00d63423          	sd	a3,8(a2)
     698:	ff073603          	ld	a2,-16(a4)
     69c:	00c688b3          	add	a7,a3,a2
     6a0:	ff173823          	sd	a7,-16(a4)
     6a4:	008ebe03          	ld	t3,8(t4)
     6a8:	01c88633          	add	a2,a7,t3
     6ac:	00ceb423          	sd	a2,8(t4)
     6b0:	f39714e3          	bne	a4,s9,5d8 <sort+0x54c>
     6b4:	015b8333          	add	t1,s7,s5
     6b8:	00cb8093          	addi	ra,s7,12
     6bc:	0c136463          	bltu	t1,ra,784 <sort+0x6f8>
     6c0:	000c061b          	sext.w	a2,s8
     6c4:	00030513          	mv	a0,t1
     6c8:	00052f83          	lw	t6,0(a0)
     6cc:	ffc52f03          	lw	t5,-4(a0)
     6d0:	ff852883          	lw	a7,-8(a0)
     6d4:	00cfd73b          	srlw	a4,t6,a2
     6d8:	0ff77e93          	zext.b	t4,a4
     6dc:	003e9593          	slli	a1,t4,0x3
     6e0:	00b783b3          	add	t2,a5,a1
     6e4:	0003b283          	ld	t0,0(t2)
     6e8:	00cf583b          	srlw	a6,t5,a2
     6ec:	0ff87693          	zext.b	a3,a6
     6f0:	fff28713          	addi	a4,t0,-1
     6f4:	00369e13          	slli	t3,a3,0x3
     6f8:	ff452803          	lw	a6,-12(a0)
     6fc:	01c786b3          	add	a3,a5,t3
     700:	00e3b023          	sd	a4,0(t2)
     704:	0006b583          	ld	a1,0(a3)
     708:	00c8debb          	srlw	t4,a7,a2
     70c:	0ffef393          	zext.b	t2,t4
     710:	00339e13          	slli	t3,t2,0x3
     714:	fff58713          	addi	a4,a1,-1
     718:	00e6b023          	sd	a4,0(a3)
     71c:	01c78eb3          	add	t4,a5,t3
     720:	000eb683          	ld	a3,0(t4)
     724:	00c853bb          	srlw	t2,a6,a2
     728:	0ff3fe13          	zext.b	t3,t2
     72c:	003e1713          	slli	a4,t3,0x3
     730:	fff68393          	addi	t2,a3,-1
     734:	007eb023          	sd	t2,0(t4)
     738:	00e78e33          	add	t3,a5,a4
     73c:	000e3e83          	ld	t4,0(t3)
     740:	00229293          	slli	t0,t0,0x2
     744:	005b0733          	add	a4,s6,t0
     748:	fffe8393          	addi	t2,t4,-1
     74c:	007e3023          	sd	t2,0(t3)
     750:	00259593          	slli	a1,a1,0x2
     754:	fff72e23          	sw	t6,-4(a4)
     758:	00269693          	slli	a3,a3,0x2
     75c:	00bb0fb3          	add	t6,s6,a1
     760:	ffefae23          	sw	t5,-4(t6)
     764:	002e9e13          	slli	t3,t4,0x2
     768:	00db0f33          	add	t5,s6,a3
     76c:	ff1f2e23          	sw	a7,-4(t5)
     770:	01cb08b3          	add	a7,s6,t3
     774:	ff08ae23          	sw	a6,-4(a7)
     778:	ff050513          	addi	a0,a0,-16
     77c:	f41576e3          	bgeu	a0,ra,6c8 <sort+0x63c>
     780:	00830333          	add	t1,t1,s0
     784:	0d736863          	bltu	t1,s7,854 <sort+0x7c8>
     788:	00032083          	lw	ra,0(t1)
     78c:	ffc30813          	addi	a6,t1,-4
     790:	000c0e9b          	sext.w	t4,s8
     794:	0180d63b          	srlw	a2,ra,s8
     798:	0ff67293          	zext.b	t0,a2
     79c:	00329713          	slli	a4,t0,0x3
     7a0:	00e783b3          	add	t2,a5,a4
     7a4:	0003b583          	ld	a1,0(t2)
     7a8:	fff58f93          	addi	t6,a1,-1
     7ac:	002f9693          	slli	a3,t6,0x2
     7b0:	01f3b023          	sd	t6,0(t2)
     7b4:	00db0f33          	add	t5,s6,a3
     7b8:	001f2023          	sw	ra,0(t5)
     7bc:	09786c63          	bltu	a6,s7,854 <sort+0x7c8>
     7c0:	ffc32883          	lw	a7,-4(t1)
     7c4:	ff830093          	addi	ra,t1,-8
     7c8:	01d8d53b          	srlw	a0,a7,t4
     7cc:	0ff57813          	zext.b	a6,a0
     7d0:	00381613          	slli	a2,a6,0x3
     7d4:	00c782b3          	add	t0,a5,a2
     7d8:	0002b703          	ld	a4,0(t0)
     7dc:	fff70393          	addi	t2,a4,-1
     7e0:	00239593          	slli	a1,t2,0x2
     7e4:	0072b023          	sd	t2,0(t0)
     7e8:	00bb0fb3          	add	t6,s6,a1
     7ec:	011fa023          	sw	a7,0(t6)
     7f0:	0770e263          	bltu	ra,s7,854 <sort+0x7c8>
     7f4:	ff832f03          	lw	t5,-8(t1)
     7f8:	ff430e13          	addi	t3,t1,-12
     7fc:	01df58bb          	srlw	a7,t5,t4
     800:	0ff8f093          	zext.b	ra,a7
     804:	00309513          	slli	a0,ra,0x3
     808:	00a78833          	add	a6,a5,a0
     80c:	00083603          	ld	a2,0(a6)
     810:	fff60293          	addi	t0,a2,-1
     814:	00229713          	slli	a4,t0,0x2
     818:	00583023          	sd	t0,0(a6)
     81c:	00eb03b3          	add	t2,s6,a4
     820:	01e3a023          	sw	t5,0(t2)
     824:	037e6863          	bltu	t3,s7,854 <sort+0x7c8>
     828:	ff432303          	lw	t1,-12(t1)
     82c:	01d35ebb          	srlw	t4,t1,t4
     830:	0ffeff93          	zext.b	t6,t4
     834:	003f9693          	slli	a3,t6,0x3
     838:	00d78f33          	add	t5,a5,a3
     83c:	000f3e03          	ld	t3,0(t5)
     840:	fffe0893          	addi	a7,t3,-1
     844:	00289093          	slli	ra,a7,0x2
     848:	011f3023          	sd	a7,0(t5)
     84c:	001b0533          	add	a0,s6,ra
     850:	00652023          	sw	t1,0(a0)
     854:	008c0c13          	addi	s8,s8,8
     858:	02000813          	li	a6,32
     85c:	010c0a63          	beq	s8,a6,870 <sort+0x7e4>
     860:	000b8613          	mv	a2,s7
     864:	000b0b93          	mv	s7,s6
     868:	00060b13          	mv	s6,a2
     86c:	8a1ff06f          	j	10c <sort+0x80>
     870:	056a0863          	beq	s4,s6,8c0 <sort+0x834>
     874:	08010113          	addi	sp,sp,128
     878:	7e813083          	ld	ra,2024(sp)
     87c:	7e013403          	ld	s0,2016(sp)
     880:	7d813483          	ld	s1,2008(sp)
     884:	7d013903          	ld	s2,2000(sp)
     888:	7c813983          	ld	s3,1992(sp)
     88c:	7c013a03          	ld	s4,1984(sp)
     890:	7b813a83          	ld	s5,1976(sp)
     894:	7a013c03          	ld	s8,1952(sp)
     898:	79813c83          	ld	s9,1944(sp)
     89c:	79013d03          	ld	s10,1936(sp)
     8a0:	000d8613          	mv	a2,s11
     8a4:	000b8593          	mv	a1,s7
     8a8:	78813d83          	ld	s11,1928(sp)
     8ac:	7a813b83          	ld	s7,1960(sp)
     8b0:	000b0513          	mv	a0,s6
     8b4:	7b013b03          	ld	s6,1968(sp)
     8b8:	7f010113          	addi	sp,sp,2032
     8bc:	0500006f          	j	90c <memcpy>
     8c0:	08010113          	addi	sp,sp,128
     8c4:	7e813083          	ld	ra,2024(sp)
     8c8:	7e013403          	ld	s0,2016(sp)
     8cc:	7d813483          	ld	s1,2008(sp)
     8d0:	7d013903          	ld	s2,2000(sp)
     8d4:	7c813983          	ld	s3,1992(sp)
     8d8:	7c013a03          	ld	s4,1984(sp)
     8dc:	7b813a83          	ld	s5,1976(sp)
     8e0:	7b013b03          	ld	s6,1968(sp)
     8e4:	7a813b83          	ld	s7,1960(sp)
     8e8:	7a013c03          	ld	s8,1952(sp)
     8ec:	79813c83          	ld	s9,1944(sp)
     8f0:	79013d03          	ld	s10,1936(sp)
     8f4:	78813d83          	ld	s11,1928(sp)
     8f8:	7f010113          	addi	sp,sp,2032
     8fc:	00008067          	ret
     900:	000b8693          	mv	a3,s7
     904:	a61ff06f          	j	364 <sort+0x2d8>

0000000000000908 <setStats>:
     908:	00008067          	ret

000000000000090c <memcpy>:
     90c:	00b567b3          	or	a5,a0,a1
     910:	00c7e2b3          	or	t0,a5,a2
     914:	0072f313          	andi	t1,t0,7
     918:	00c506b3          	add	a3,a0,a2
     91c:	10030863          	beqz	t1,a2c <memcpy+0x120>
     920:	00c58633          	add	a2,a1,a2
     924:	00050793          	mv	a5,a0
     928:	10d57063          	bgeu	a0,a3,a28 <memcpy+0x11c>
     92c:	40b60733          	sub	a4,a2,a1
     930:	00777393          	andi	t2,a4,7
     934:	0a038463          	beqz	t2,9dc <memcpy+0xd0>
     938:	00100813          	li	a6,1
     93c:	09038663          	beq	t2,a6,9c8 <memcpy+0xbc>
     940:	00200893          	li	a7,2
     944:	07138a63          	beq	t2,a7,9b8 <memcpy+0xac>
     948:	00300e13          	li	t3,3
     94c:	05c38e63          	beq	t2,t3,9a8 <memcpy+0x9c>
     950:	00400e93          	li	t4,4
     954:	05d38263          	beq	t2,t4,998 <memcpy+0x8c>
     958:	00500f13          	li	t5,5
     95c:	03e38663          	beq	t2,t5,988 <memcpy+0x7c>
     960:	00600f93          	li	t6,6
     964:	01f38a63          	beq	t2,t6,978 <memcpy+0x6c>
     968:	0005c283          	lbu	t0,0(a1)
     96c:	00150793          	addi	a5,a0,1
     970:	00158593          	addi	a1,a1,1
     974:	00550023          	sb	t0,0(a0)
     978:	0005c303          	lbu	t1,0(a1)
     97c:	00178793          	addi	a5,a5,1
     980:	00158593          	addi	a1,a1,1
     984:	fe678fa3          	sb	t1,-1(a5)
     988:	0005c683          	lbu	a3,0(a1)
     98c:	00178793          	addi	a5,a5,1
     990:	00158593          	addi	a1,a1,1
     994:	fed78fa3          	sb	a3,-1(a5)
     998:	0005c703          	lbu	a4,0(a1)
     99c:	00178793          	addi	a5,a5,1
     9a0:	00158593          	addi	a1,a1,1
     9a4:	fee78fa3          	sb	a4,-1(a5)
     9a8:	0005c383          	lbu	t2,0(a1)
     9ac:	00178793          	addi	a5,a5,1
     9b0:	00158593          	addi	a1,a1,1
     9b4:	fe778fa3          	sb	t2,-1(a5)
     9b8:	0005c803          	lbu	a6,0(a1)
     9bc:	00178793          	addi	a5,a5,1
     9c0:	00158593          	addi	a1,a1,1
     9c4:	ff078fa3          	sb	a6,-1(a5)
     9c8:	0005c883          	lbu	a7,0(a1)
     9cc:	00158593          	addi	a1,a1,1
     9d0:	00178793          	addi	a5,a5,1
     9d4:	ff178fa3          	sb	a7,-1(a5)
     9d8:	16c58c63          	beq	a1,a2,b50 <memcpy+0x244>
     9dc:	0005ce03          	lbu	t3,0(a1)
     9e0:	00858593          	addi	a1,a1,8
     9e4:	00878793          	addi	a5,a5,8
     9e8:	ffc78c23          	sb	t3,-8(a5)
     9ec:	ff95ce83          	lbu	t4,-7(a1)
     9f0:	ffd78ca3          	sb	t4,-7(a5)
     9f4:	ffa5cf03          	lbu	t5,-6(a1)
     9f8:	ffe78d23          	sb	t5,-6(a5)
     9fc:	ffb5cf83          	lbu	t6,-5(a1)
     a00:	fff78da3          	sb	t6,-5(a5)
     a04:	ffc5c283          	lbu	t0,-4(a1)
     a08:	fe578e23          	sb	t0,-4(a5)
     a0c:	ffd5c303          	lbu	t1,-3(a1)
     a10:	fe678ea3          	sb	t1,-3(a5)
     a14:	ffe5c683          	lbu	a3,-2(a1)
     a18:	fed78f23          	sb	a3,-2(a5)
     a1c:	fff5c703          	lbu	a4,-1(a1)
     a20:	fee78fa3          	sb	a4,-1(a5)
     a24:	fac59ce3          	bne	a1,a2,9dc <memcpy+0xd0>
     a28:	00008067          	ret
     a2c:	fed57ee3          	bgeu	a0,a3,a28 <memcpy+0x11c>
     a30:	0005b603          	ld	a2,0(a1)
     a34:	fff54393          	not	t2,a0
     a38:	00768833          	add	a6,a3,t2
     a3c:	00385893          	srli	a7,a6,0x3
     a40:	00850793          	addi	a5,a0,8
     a44:	fec7bc23          	sd	a2,-8(a5)
     a48:	00858593          	addi	a1,a1,8
     a4c:	0078fe13          	andi	t3,a7,7
     a50:	10d7f463          	bgeu	a5,a3,b58 <memcpy+0x24c>
     a54:	080e0c63          	beqz	t3,aec <memcpy+0x1e0>
     a58:	00100e93          	li	t4,1
     a5c:	07de0e63          	beq	t3,t4,ad8 <memcpy+0x1cc>
     a60:	00200f13          	li	t5,2
     a64:	07ee0263          	beq	t3,t5,ac8 <memcpy+0x1bc>
     a68:	00300f93          	li	t6,3
     a6c:	05fe0663          	beq	t3,t6,ab8 <memcpy+0x1ac>
     a70:	00400293          	li	t0,4
     a74:	025e0a63          	beq	t3,t0,aa8 <memcpy+0x19c>
     a78:	00500313          	li	t1,5
     a7c:	006e0e63          	beq	t3,t1,a98 <memcpy+0x18c>
     a80:	00600713          	li	a4,6
     a84:	0aee1c63          	bne	t3,a4,b3c <memcpy+0x230>
     a88:	0005b383          	ld	t2,0(a1)
     a8c:	00878793          	addi	a5,a5,8
     a90:	00858593          	addi	a1,a1,8
     a94:	fe77bc23          	sd	t2,-8(a5)
     a98:	0005b803          	ld	a6,0(a1)
     a9c:	00878793          	addi	a5,a5,8
     aa0:	00858593          	addi	a1,a1,8
     aa4:	ff07bc23          	sd	a6,-8(a5)
     aa8:	0005b883          	ld	a7,0(a1)
     aac:	00878793          	addi	a5,a5,8
     ab0:	00858593          	addi	a1,a1,8
     ab4:	ff17bc23          	sd	a7,-8(a5)
     ab8:	0005be03          	ld	t3,0(a1)
     abc:	00878793          	addi	a5,a5,8
     ac0:	00858593          	addi	a1,a1,8
     ac4:	ffc7bc23          	sd	t3,-8(a5)
     ac8:	0005be83          	ld	t4,0(a1)
     acc:	00878793          	addi	a5,a5,8
     ad0:	00858593          	addi	a1,a1,8
     ad4:	ffd7bc23          	sd	t4,-8(a5)
     ad8:	0005bf03          	ld	t5,0(a1)
     adc:	00878793          	addi	a5,a5,8
     ae0:	00858593          	addi	a1,a1,8
     ae4:	ffe7bc23          	sd	t5,-8(a5)
     ae8:	06d7f663          	bgeu	a5,a3,b54 <memcpy+0x248>
     aec:	0005bf83          	ld	t6,0(a1)
     af0:	04058593          	addi	a1,a1,64
     af4:	04078793          	addi	a5,a5,64
     af8:	fdf7b023          	sd	t6,-64(a5)
     afc:	fc85b283          	ld	t0,-56(a1)
     b00:	fc57b423          	sd	t0,-56(a5)
     b04:	fd05b303          	ld	t1,-48(a1)
     b08:	fc67b823          	sd	t1,-48(a5)
     b0c:	fd85b703          	ld	a4,-40(a1)
     b10:	fce7bc23          	sd	a4,-40(a5)
     b14:	fe05b603          	ld	a2,-32(a1)
     b18:	fec7b023          	sd	a2,-32(a5)
     b1c:	fe85b383          	ld	t2,-24(a1)
     b20:	fe77b423          	sd	t2,-24(a5)
     b24:	ff05b803          	ld	a6,-16(a1)
     b28:	ff07b823          	sd	a6,-16(a5)
     b2c:	ff85b883          	ld	a7,-8(a1)
     b30:	ff17bc23          	sd	a7,-8(a5)
     b34:	fad7ece3          	bltu	a5,a3,aec <memcpy+0x1e0>
     b38:	00008067          	ret
     b3c:	0005b603          	ld	a2,0(a1)
     b40:	00878793          	addi	a5,a5,8
     b44:	00858593          	addi	a1,a1,8
     b48:	fec7bc23          	sd	a2,-8(a5)
     b4c:	f3dff06f          	j	a88 <memcpy+0x17c>
     b50:	00008067          	ret
     b54:	00008067          	ret
     b58:	00008067          	ret

0000000000000b5c <memset>:
     b5c:	ff010113          	addi	sp,sp,-16
     b60:	00c567b3          	or	a5,a0,a2
     b64:	00113423          	sd	ra,8(sp)
     b68:	00813023          	sd	s0,0(sp)
     b6c:	0077f093          	andi	ra,a5,7
     b70:	00050413          	mv	s0,a0
     b74:	00c50733          	add	a4,a0,a2
     b78:	02008263          	beqz	ra,b9c <memset+0x40>
     b7c:	00e57663          	bgeu	a0,a4,b88 <memset+0x2c>
     b80:	0ff5f593          	zext.b	a1,a1
     b84:	fd9ff0ef          	jal	ra,b5c <memset>
     b88:	00813083          	ld	ra,8(sp)
     b8c:	00040513          	mv	a0,s0
     b90:	00013403          	ld	s0,0(sp)
     b94:	01010113          	addi	sp,sp,16
     b98:	00008067          	ret
     b9c:	0ff5f593          	zext.b	a1,a1
     ba0:	00004297          	auipc	t0,0x4
     ba4:	5802b283          	ld	t0,1408(t0) # 5120 <input_data+0x2000>
     ba8:	02558333          	mul	t1,a1,t0
     bac:	fce57ee3          	bgeu	a0,a4,b88 <memset+0x2c>
     bb0:	fff54693          	not	a3,a0
     bb4:	00d703b3          	add	t2,a4,a3
     bb8:	0033d513          	srli	a0,t2,0x3
     bbc:	00840793          	addi	a5,s0,8
     bc0:	fe67bc23          	sd	t1,-8(a5)
     bc4:	00757813          	andi	a6,a0,7
     bc8:	fce7f0e3          	bgeu	a5,a4,b88 <memset+0x2c>
     bcc:	06080463          	beqz	a6,c34 <memset+0xd8>
     bd0:	00100613          	li	a2,1
     bd4:	04c80a63          	beq	a6,a2,c28 <memset+0xcc>
     bd8:	00200893          	li	a7,2
     bdc:	05180263          	beq	a6,a7,c20 <memset+0xc4>
     be0:	00300e13          	li	t3,3
     be4:	03c80a63          	beq	a6,t3,c18 <memset+0xbc>
     be8:	00400e93          	li	t4,4
     bec:	03d80263          	beq	a6,t4,c10 <memset+0xb4>
     bf0:	00500f13          	li	t5,5
     bf4:	01e80a63          	beq	a6,t5,c08 <memset+0xac>
     bf8:	00600f93          	li	t6,6
     bfc:	07f81263          	bne	a6,t6,c60 <memset+0x104>
     c00:	0067b023          	sd	t1,0(a5)
     c04:	00878793          	addi	a5,a5,8
     c08:	0067b023          	sd	t1,0(a5)
     c0c:	00878793          	addi	a5,a5,8
     c10:	0067b023          	sd	t1,0(a5)
     c14:	00878793          	addi	a5,a5,8
     c18:	0067b023          	sd	t1,0(a5)
     c1c:	00878793          	addi	a5,a5,8
     c20:	0067b023          	sd	t1,0(a5)
     c24:	00878793          	addi	a5,a5,8
     c28:	00878793          	addi	a5,a5,8
     c2c:	fe67bc23          	sd	t1,-8(a5)
     c30:	f4e7fce3          	bgeu	a5,a4,b88 <memset+0x2c>
     c34:	0067b023          	sd	t1,0(a5)
     c38:	0067b423          	sd	t1,8(a5)
     c3c:	0067b823          	sd	t1,16(a5)
     c40:	0067bc23          	sd	t1,24(a5)
     c44:	0267b023          	sd	t1,32(a5)
     c48:	0267b423          	sd	t1,40(a5)
     c4c:	0267b823          	sd	t1,48(a5)
     c50:	0267bc23          	sd	t1,56(a5)
     c54:	04078793          	addi	a5,a5,64
     c58:	fce7eee3          	bltu	a5,a4,c34 <memset+0xd8>
     c5c:	f2dff06f          	j	b88 <memset+0x2c>
     c60:	0067b023          	sd	t1,0(a5)
     c64:	00878793          	addi	a5,a5,8
     c68:	f99ff06f          	j	c00 <memset+0xa4>

0000000000000c6c <strlen>:
     c6c:	00054783          	lbu	a5,0(a0)
     c70:	00078e63          	beqz	a5,c8c <strlen+0x20>
     c74:	00050293          	mv	t0,a0
     c78:	0012c703          	lbu	a4,1(t0)
     c7c:	00128293          	addi	t0,t0,1
     c80:	fe071ce3          	bnez	a4,c78 <strlen+0xc>
     c84:	40a28533          	sub	a0,t0,a0
     c88:	00008067          	ret
     c8c:	00000513          	li	a0,0
     c90:	00008067          	ret

0000000000000c94 <strnlen>:
     c94:	00b506b3          	add	a3,a0,a1
     c98:	00050793          	mv	a5,a0
     c9c:	10058a63          	beqz	a1,db0 <strnlen+0x11c>
     ca0:	40a68733          	sub	a4,a3,a0
     ca4:	00777293          	andi	t0,a4,7
     ca8:	08028063          	beqz	t0,d28 <strnlen+0x94>
     cac:	00100613          	li	a2,1
     cb0:	06c28463          	beq	t0,a2,d18 <strnlen+0x84>
     cb4:	00200313          	li	t1,2
     cb8:	04628a63          	beq	t0,t1,d0c <strnlen+0x78>
     cbc:	00300393          	li	t2,3
     cc0:	04728063          	beq	t0,t2,d00 <strnlen+0x6c>
     cc4:	00400593          	li	a1,4
     cc8:	02b28663          	beq	t0,a1,cf4 <strnlen+0x60>
     ccc:	00500813          	li	a6,5
     cd0:	01028c63          	beq	t0,a6,ce8 <strnlen+0x54>
     cd4:	00600893          	li	a7,6
     cd8:	0d129463          	bne	t0,a7,da0 <strnlen+0x10c>
     cdc:	0007ce83          	lbu	t4,0(a5)
     ce0:	0a0e8c63          	beqz	t4,d98 <strnlen+0x104>
     ce4:	00178793          	addi	a5,a5,1
     ce8:	0007cf03          	lbu	t5,0(a5)
     cec:	0a0f0663          	beqz	t5,d98 <strnlen+0x104>
     cf0:	00178793          	addi	a5,a5,1
     cf4:	0007cf83          	lbu	t6,0(a5)
     cf8:	0a0f8063          	beqz	t6,d98 <strnlen+0x104>
     cfc:	00178793          	addi	a5,a5,1
     d00:	0007c703          	lbu	a4,0(a5)
     d04:	08070a63          	beqz	a4,d98 <strnlen+0x104>
     d08:	00178793          	addi	a5,a5,1
     d0c:	0007c283          	lbu	t0,0(a5)
     d10:	08028463          	beqz	t0,d98 <strnlen+0x104>
     d14:	00178793          	addi	a5,a5,1
     d18:	0007c603          	lbu	a2,0(a5)
     d1c:	06060e63          	beqz	a2,d98 <strnlen+0x104>
     d20:	00178793          	addi	a5,a5,1
     d24:	06f68663          	beq	a3,a5,d90 <strnlen+0xfc>
     d28:	0007c303          	lbu	t1,0(a5)
     d2c:	06030663          	beqz	t1,d98 <strnlen+0x104>
     d30:	0017c383          	lbu	t2,1(a5)
     d34:	00178793          	addi	a5,a5,1
     d38:	00078593          	mv	a1,a5
     d3c:	04038e63          	beqz	t2,d98 <strnlen+0x104>
     d40:	0017c803          	lbu	a6,1(a5)
     d44:	00178793          	addi	a5,a5,1
     d48:	04080863          	beqz	a6,d98 <strnlen+0x104>
     d4c:	0025c883          	lbu	a7,2(a1)
     d50:	00258793          	addi	a5,a1,2
     d54:	04088263          	beqz	a7,d98 <strnlen+0x104>
     d58:	0035ce03          	lbu	t3,3(a1)
     d5c:	00358793          	addi	a5,a1,3
     d60:	020e0c63          	beqz	t3,d98 <strnlen+0x104>
     d64:	0045ce83          	lbu	t4,4(a1)
     d68:	00458793          	addi	a5,a1,4
     d6c:	020e8663          	beqz	t4,d98 <strnlen+0x104>
     d70:	0055cf03          	lbu	t5,5(a1)
     d74:	00558793          	addi	a5,a1,5
     d78:	020f0063          	beqz	t5,d98 <strnlen+0x104>
     d7c:	0065cf83          	lbu	t6,6(a1)
     d80:	00658793          	addi	a5,a1,6
     d84:	000f8a63          	beqz	t6,d98 <strnlen+0x104>
     d88:	00758793          	addi	a5,a1,7
     d8c:	f8f69ee3          	bne	a3,a5,d28 <strnlen+0x94>
     d90:	40a68533          	sub	a0,a3,a0
     d94:	00008067          	ret
     d98:	40a78533          	sub	a0,a5,a0
     d9c:	00008067          	ret
     da0:	00054e03          	lbu	t3,0(a0)
     da4:	fe0e0ae3          	beqz	t3,d98 <strnlen+0x104>
     da8:	00150793          	addi	a5,a0,1
     dac:	f31ff06f          	j	cdc <strnlen+0x48>
     db0:	00000513          	li	a0,0
     db4:	00008067          	ret

0000000000000db8 <strcmp>:
     db8:	00054783          	lbu	a5,0(a0)
     dbc:	00158593          	addi	a1,a1,1
     dc0:	00150513          	addi	a0,a0,1
     dc4:	fff5c703          	lbu	a4,-1(a1)
     dc8:	00078a63          	beqz	a5,ddc <strcmp+0x24>
     dcc:	fee786e3          	beq	a5,a4,db8 <strcmp>
     dd0:	0007851b          	sext.w	a0,a5
     dd4:	40e5053b          	subw	a0,a0,a4
     dd8:	00008067          	ret
     ddc:	00000513          	li	a0,0
     de0:	ff5ff06f          	j	dd4 <strcmp+0x1c>

0000000000000de4 <strcpy>:
     de4:	00050793          	mv	a5,a0
     de8:	0005c703          	lbu	a4,0(a1)
     dec:	00178793          	addi	a5,a5,1
     df0:	00158593          	addi	a1,a1,1
     df4:	fee78fa3          	sb	a4,-1(a5)
     df8:	fe0718e3          	bnez	a4,de8 <strcpy+0x4>
     dfc:	00008067          	ret

0000000000000e00 <atol>:
     e00:	00054703          	lbu	a4,0(a0)
     e04:	02000693          	li	a3,32
     e08:	00050793          	mv	a5,a0
     e0c:	00d71863          	bne	a4,a3,e1c <atol+0x1c>
     e10:	0017c703          	lbu	a4,1(a5)
     e14:	00178793          	addi	a5,a5,1
     e18:	fed70ce3          	beq	a4,a3,e10 <atol+0x10>
     e1c:	02d00293          	li	t0,45
     e20:	06570063          	beq	a4,t0,e80 <atol+0x80>
     e24:	02b00313          	li	t1,43
     e28:	04670063          	beq	a4,t1,e68 <atol+0x68>
     e2c:	0007c383          	lbu	t2,0(a5)
     e30:	00000593          	li	a1,0
     e34:	04038263          	beqz	t2,e78 <atol+0x78>
     e38:	00000513          	li	a0,0
     e3c:	00178793          	addi	a5,a5,1
     e40:	fd03861b          	addiw	a2,t2,-48
     e44:	00251813          	slli	a6,a0,0x2
     e48:	0007c383          	lbu	t2,0(a5)
     e4c:	00a80533          	add	a0,a6,a0
     e50:	00151893          	slli	a7,a0,0x1
     e54:	01160533          	add	a0,a2,a7
     e58:	fe0392e3          	bnez	t2,e3c <atol+0x3c>
     e5c:	02058063          	beqz	a1,e7c <atol+0x7c>
     e60:	40a00533          	neg	a0,a0
     e64:	00008067          	ret
     e68:	0017c383          	lbu	t2,1(a5)
     e6c:	00000593          	li	a1,0
     e70:	00178793          	addi	a5,a5,1
     e74:	fc0392e3          	bnez	t2,e38 <atol+0x38>
     e78:	00000513          	li	a0,0
     e7c:	00008067          	ret
     e80:	0017c383          	lbu	t2,1(a5)
     e84:	00100593          	li	a1,1
     e88:	00178793          	addi	a5,a5,1
     e8c:	fa0396e3          	bnez	t2,e38 <atol+0x38>
     e90:	00000513          	li	a0,0
     e94:	fe9ff06f          	j	e7c <atol+0x7c>

0000000000000e98 <main>:
     e98:	00001537          	lui	a0,0x1
     e9c:	ff010113          	addi	sp,sp,-16
     ea0:	80050513          	addi	a0,a0,-2048 # 800 <sort+0x774>
     ea4:	00006617          	auipc	a2,0x6
     ea8:	38460613          	addi	a2,a2,900 # 7228 <scratch.0>
     eac:	00002597          	auipc	a1,0x2
     eb0:	27458593          	addi	a1,a1,628 # 3120 <input_data>
     eb4:	00113423          	sd	ra,8(sp)
     eb8:	9d4ff0ef          	jal	ra,8c <sort>
     ebc:	00002717          	auipc	a4,0x2
     ec0:	26470713          	addi	a4,a4,612 # 3120 <input_data>
     ec4:	00000797          	auipc	a5,0x0
     ec8:	25c78793          	addi	a5,a5,604 # 1120 <verify_data>
     ecc:	00000513          	li	a0,0
     ed0:	00072603          	lw	a2,0(a4)
     ed4:	0007a583          	lw	a1,0(a5)
     ed8:	00472683          	lw	a3,4(a4)
     edc:	0047a803          	lw	a6,4(a5)
     ee0:	0006809b          	sext.w	ra,a3
     ee4:	10c59c63          	bne	a1,a2,ffc <main+0x164>
     ee8:	0025051b          	addiw	a0,a0,2
     eec:	11009263          	bne	ra,a6,ff0 <main+0x158>
     ef0:	00872283          	lw	t0,8(a4)
     ef4:	0087a883          	lw	a7,8(a5)
     ef8:	00c72383          	lw	t2,12(a4)
     efc:	00c7a303          	lw	t1,12(a5)
     f00:	00870e13          	addi	t3,a4,8
     f04:	00878e93          	addi	t4,a5,8
     f08:	00038f1b          	sext.w	t5,t2
     f0c:	0e589863          	bne	a7,t0,ffc <main+0x164>
     f10:	0025051b          	addiw	a0,a0,2
     f14:	0c6f1e63          	bne	t5,t1,ff0 <main+0x158>
     f18:	01072f83          	lw	t6,16(a4)
     f1c:	0107a603          	lw	a2,16(a5)
     f20:	01472583          	lw	a1,20(a4)
     f24:	0147a683          	lw	a3,20(a5)
     f28:	0005881b          	sext.w	a6,a1
     f2c:	0df61863          	bne	a2,t6,ffc <main+0x164>
     f30:	0025051b          	addiw	a0,a0,2
     f34:	0ad81e63          	bne	a6,a3,ff0 <main+0x158>
     f38:	01872083          	lw	ra,24(a4)
     f3c:	0187a283          	lw	t0,24(a5)
     f40:	01c72883          	lw	a7,28(a4)
     f44:	01c7a383          	lw	t2,28(a5)
     f48:	0008831b          	sext.w	t1,a7
     f4c:	0a129863          	bne	t0,ra,ffc <main+0x164>
     f50:	0025051b          	addiw	a0,a0,2
     f54:	08731e63          	bne	t1,t2,ff0 <main+0x158>
     f58:	02072f03          	lw	t5,32(a4)
     f5c:	0207af83          	lw	t6,32(a5)
     f60:	02472703          	lw	a4,36(a4)
     f64:	0247a783          	lw	a5,36(a5)
     f68:	0007061b          	sext.w	a2,a4
     f6c:	09ef9863          	bne	t6,t5,ffc <main+0x164>
     f70:	0025051b          	addiw	a0,a0,2
     f74:	06f61e63          	bne	a2,a5,ff0 <main+0x158>
     f78:	020e2683          	lw	a3,32(t3)
     f7c:	020ea583          	lw	a1,32(t4)
     f80:	024e2083          	lw	ra,36(t3)
     f84:	024ea803          	lw	a6,36(t4)
     f88:	0000829b          	sext.w	t0,ra
     f8c:	06d59863          	bne	a1,a3,ffc <main+0x164>
     f90:	0025051b          	addiw	a0,a0,2
     f94:	05029e63          	bne	t0,a6,ff0 <main+0x158>
     f98:	028e2883          	lw	a7,40(t3)
     f9c:	028ea383          	lw	t2,40(t4)
     fa0:	02ce2303          	lw	t1,44(t3)
     fa4:	02ceaf03          	lw	t5,44(t4)
     fa8:	00030f9b          	sext.w	t6,t1
     fac:	05139863          	bne	t2,a7,ffc <main+0x164>
     fb0:	0025051b          	addiw	a0,a0,2
     fb4:	03ef9e63          	bne	t6,t5,ff0 <main+0x158>
     fb8:	030e2603          	lw	a2,48(t3)
     fbc:	030ea683          	lw	a3,48(t4)
     fc0:	034e2703          	lw	a4,52(t3)
     fc4:	034ea583          	lw	a1,52(t4)
     fc8:	0007009b          	sext.w	ra,a4
     fcc:	02c69863          	bne	a3,a2,ffc <main+0x164>
     fd0:	0025051b          	addiw	a0,a0,2
     fd4:	00b09e63          	bne	ra,a1,ff0 <main+0x158>
     fd8:	8005081b          	addiw	a6,a0,-2048
     fdc:	038e0713          	addi	a4,t3,56
     fe0:	038e8793          	addi	a5,t4,56
     fe4:	ee0816e3          	bnez	a6,ed0 <main+0x38>
     fe8:	00bc6537          	lui	a0,0xbc6
     fec:	14e50513          	addi	a0,a0,334 # bc614e <scratch.0+0xbbef26>
     ff0:	00813083          	ld	ra,8(sp)
     ff4:	01010113          	addi	sp,sp,16
     ff8:	00008067          	ret
     ffc:	0015051b          	addiw	a0,a0,1
    1000:	ff1ff06f          	j	ff0 <main+0x158>

0000000000001004 <end>:
    1004:	00000013          	nop
    1008:	00000013          	nop
    100c:	00000013          	nop
    1010:	00000013          	nop
    1014:	00000013          	nop
    1018:	00000013          	nop

000000000000101c <_last>:
    101c:	fe9ff06f          	j	1004 <end>
