
spmv.riscv:     file format elf64-littleriscv


Disassembly of section .text:

0000000000000000 <_start>:
   0:	00000093          	li	ra,0
   4:	00000113          	li	sp,0
   8:	00000193          	li	gp,0
   c:	00000213          	li	tp,0
  10:	00000293          	li	t0,0
  14:	00000313          	li	t1,0
  18:	00000393          	li	t2,0
  1c:	00000413          	li	s0,0
  20:	00000493          	li	s1,0
  24:	00000513          	li	a0,0
  28:	00000593          	li	a1,0
  2c:	00000613          	li	a2,0
  30:	00000693          	li	a3,0
  34:	00000713          	li	a4,0
  38:	00000793          	li	a5,0
  3c:	00000813          	li	a6,0
  40:	00000893          	li	a7,0
  44:	00000913          	li	s2,0
  48:	00000993          	li	s3,0
  4c:	00000a13          	li	s4,0
  50:	00000a93          	li	s5,0
  54:	00000b13          	li	s6,0
  58:	00000b93          	li	s7,0
  5c:	00000c13          	li	s8,0
  60:	00000c93          	li	s9,0
  64:	00000d13          	li	s10,0
  68:	00000d93          	li	s11,0
  6c:	00000e13          	li	t3,0
  70:	00000e93          	li	t4,0
  74:	00000f13          	li	t5,0
  78:	00000f93          	li	t6,0
  7c:	00009117          	auipc	sp,0x9
  80:	92c10113          	addi	sp,sp,-1748 # 89a8 <STACK>
  84:	3e8000ef          	jal	ra,46c <main>
  88:	4840006f          	j	50c <end>

000000000000008c <spmv>:
  8c:	1ca05263          	blez	a0,250 <spmv+0x1c4>
  90:	fb010113          	addi	sp,sp,-80
  94:	00251513          	slli	a0,a0,0x2
  98:	04813423          	sd	s0,72(sp)
  9c:	04913023          	sd	s1,64(sp)
  a0:	03213c23          	sd	s2,56(sp)
  a4:	03313823          	sd	s3,48(sp)
  a8:	03413423          	sd	s4,40(sp)
  ac:	03513023          	sd	s5,32(sp)
  b0:	01613c23          	sd	s6,24(sp)
  b4:	01713823          	sd	s7,16(sp)
  b8:	01813423          	sd	s8,8(sp)
  bc:	01913023          	sd	s9,0(sp)
  c0:	00070f13          	mv	t5,a4
  c4:	00078f93          	mv	t6,a5
  c8:	00a702b3          	add	t0,a4,a0
  cc:	01058393          	addi	t2,a1,16
  d0:	004f2483          	lw	s1,4(t5)
  d4:	000f2e03          	lw	t3,0(t5)
  d8:	ffd4879b          	addiw	a5,s1,-3
  dc:	16fe5263          	bge	t3,a5,240 <spmv+0x1b4>
  e0:	ffc48a9b          	addiw	s5,s1,-4
  e4:	41ca8abb          	subw	s5,s5,t3
  e8:	002ada1b          	srliw	s4,s5,0x2
  ec:	002a1a13          	slli	s4,s4,0x2
  f0:	01ca0a33          	add	s4,s4,t3
  f4:	002e1713          	slli	a4,t3,0x2
  f8:	002a1a13          	slli	s4,s4,0x2
  fc:	00e587b3          	add	a5,a1,a4
 100:	002ada9b          	srliw	s5,s5,0x2
 104:	00e60733          	add	a4,a2,a4
 108:	007a0a33          	add	s4,s4,t2
 10c:	00000993          	li	s3,0
 110:	00000913          	li	s2,0
 114:	00000413          	li	s0,0
 118:	00000e93          	li	t4,0
 11c:	00872303          	lw	t1,8(a4)
 120:	00c72883          	lw	a7,12(a4)
 124:	00072b83          	lw	s7,0(a4)
 128:	00472b03          	lw	s6,4(a4)
 12c:	00231313          	slli	t1,t1,0x2
 130:	00289893          	slli	a7,a7,0x2
 134:	002b9b93          	slli	s7,s7,0x2
 138:	002b1b13          	slli	s6,s6,0x2
 13c:	00668333          	add	t1,a3,t1
 140:	011688b3          	add	a7,a3,a7
 144:	01768bb3          	add	s7,a3,s7
 148:	01668b33          	add	s6,a3,s6
 14c:	0087a503          	lw	a0,8(a5)
 150:	00c7a803          	lw	a6,12(a5)
 154:	00032c83          	lw	s9,0(t1)
 158:	0008ac03          	lw	s8,0(a7)
 15c:	0007a303          	lw	t1,0(a5)
 160:	0047a883          	lw	a7,4(a5)
 164:	000bab83          	lw	s7,0(s7)
 168:	000b2b03          	lw	s6,0(s6)
 16c:	0395053b          	mulw	a0,a0,s9
 170:	01078793          	addi	a5,a5,16
 174:	01070713          	addi	a4,a4,16
 178:	0388083b          	mulw	a6,a6,s8
 17c:	0125093b          	addw	s2,a0,s2
 180:	0373033b          	mulw	t1,t1,s7
 184:	013809bb          	addw	s3,a6,s3
 188:	036888bb          	mulw	a7,a7,s6
 18c:	01d30ebb          	addw	t4,t1,t4
 190:	0088843b          	addw	s0,a7,s0
 194:	f8fa14e3          	bne	s4,a5,11c <spmv+0x90>
 198:	004e0e1b          	addiw	t3,t3,4
 19c:	002a9a9b          	slliw	s5,s5,0x2
 1a0:	01ca8e3b          	addw	t3,s5,t3
 1a4:	0139053b          	addw	a0,s2,s3
 1a8:	049e5863          	bge	t3,s1,1f8 <spmv+0x16c>
 1ac:	41c4833b          	subw	t1,s1,t3
 1b0:	02031313          	slli	t1,t1,0x20
 1b4:	02035313          	srli	t1,t1,0x20
 1b8:	01c30333          	add	t1,t1,t3
 1bc:	002e1713          	slli	a4,t3,0x2
 1c0:	00231313          	slli	t1,t1,0x2
 1c4:	00e58833          	add	a6,a1,a4
 1c8:	00658333          	add	t1,a1,t1
 1cc:	00e60733          	add	a4,a2,a4
 1d0:	00072783          	lw	a5,0(a4)
 1d4:	00082883          	lw	a7,0(a6)
 1d8:	00480813          	addi	a6,a6,4
 1dc:	00279793          	slli	a5,a5,0x2
 1e0:	00f687b3          	add	a5,a3,a5
 1e4:	0007a783          	lw	a5,0(a5)
 1e8:	00470713          	addi	a4,a4,4
 1ec:	02f887bb          	mulw	a5,a7,a5
 1f0:	01d78ebb          	addw	t4,a5,t4
 1f4:	fd031ee3          	bne	t1,a6,1d0 <spmv+0x144>
 1f8:	008e87bb          	addw	a5,t4,s0
 1fc:	00a787bb          	addw	a5,a5,a0
 200:	00ffa023          	sw	a5,0(t6)
 204:	004f0f13          	addi	t5,t5,4
 208:	004f8f93          	addi	t6,t6,4
 20c:	ede292e3          	bne	t0,t5,d0 <spmv+0x44>
 210:	04813403          	ld	s0,72(sp)
 214:	04013483          	ld	s1,64(sp)
 218:	03813903          	ld	s2,56(sp)
 21c:	03013983          	ld	s3,48(sp)
 220:	02813a03          	ld	s4,40(sp)
 224:	02013a83          	ld	s5,32(sp)
 228:	01813b03          	ld	s6,24(sp)
 22c:	01013b83          	ld	s7,16(sp)
 230:	00813c03          	ld	s8,8(sp)
 234:	00013c83          	ld	s9,0(sp)
 238:	05010113          	addi	sp,sp,80
 23c:	00008067          	ret
 240:	00000513          	li	a0,0
 244:	00000413          	li	s0,0
 248:	00000e93          	li	t4,0
 24c:	f5dff06f          	j	1a8 <spmv+0x11c>
 250:	00008067          	ret

0000000000000254 <setStats>:
 254:	00008067          	ret

0000000000000258 <memcpy>:
 258:	00b567b3          	or	a5,a0,a1
 25c:	00c7e7b3          	or	a5,a5,a2
 260:	0077f793          	andi	a5,a5,7
 264:	00c506b3          	add	a3,a0,a2
 268:	02078463          	beqz	a5,290 <memcpy+0x38>
 26c:	00c58633          	add	a2,a1,a2
 270:	00050793          	mv	a5,a0
 274:	02d57e63          	bgeu	a0,a3,2b0 <memcpy+0x58>
 278:	0005c703          	lbu	a4,0(a1)
 27c:	00158593          	addi	a1,a1,1
 280:	00178793          	addi	a5,a5,1
 284:	fee78fa3          	sb	a4,-1(a5)
 288:	fec598e3          	bne	a1,a2,278 <memcpy+0x20>
 28c:	00008067          	ret
 290:	fed57ee3          	bgeu	a0,a3,28c <memcpy+0x34>
 294:	00050793          	mv	a5,a0
 298:	0005b703          	ld	a4,0(a1)
 29c:	00878793          	addi	a5,a5,8
 2a0:	00858593          	addi	a1,a1,8
 2a4:	fee7bc23          	sd	a4,-8(a5)
 2a8:	fed7e8e3          	bltu	a5,a3,298 <memcpy+0x40>
 2ac:	00008067          	ret
 2b0:	00008067          	ret

00000000000002b4 <memset>:
 2b4:	ff010113          	addi	sp,sp,-16
 2b8:	00c567b3          	or	a5,a0,a2
 2bc:	00813023          	sd	s0,0(sp)
 2c0:	00113423          	sd	ra,8(sp)
 2c4:	0077f793          	andi	a5,a5,7
 2c8:	00050413          	mv	s0,a0
 2cc:	00c50733          	add	a4,a0,a2
 2d0:	02078263          	beqz	a5,2f4 <memset+0x40>
 2d4:	00e57663          	bgeu	a0,a4,2e0 <memset+0x2c>
 2d8:	0ff5f593          	zext.b	a1,a1
 2dc:	fd9ff0ef          	jal	ra,2b4 <memset>
 2e0:	00813083          	ld	ra,8(sp)
 2e4:	00040513          	mv	a0,s0
 2e8:	00013403          	ld	s0,0(sp)
 2ec:	01010113          	addi	sp,sp,16
 2f0:	00008067          	ret
 2f4:	0ff5f593          	zext.b	a1,a1
 2f8:	00006797          	auipc	a5,0x6
 2fc:	5a87b783          	ld	a5,1448(a5) # 68a0 <val+0x2580>
 300:	02f585b3          	mul	a1,a1,a5
 304:	fce57ee3          	bgeu	a0,a4,2e0 <memset+0x2c>
 308:	00050793          	mv	a5,a0
 30c:	00878793          	addi	a5,a5,8
 310:	feb7bc23          	sd	a1,-8(a5)
 314:	fee7ece3          	bltu	a5,a4,30c <memset+0x58>
 318:	00813083          	ld	ra,8(sp)
 31c:	00040513          	mv	a0,s0
 320:	00013403          	ld	s0,0(sp)
 324:	01010113          	addi	sp,sp,16
 328:	00008067          	ret

000000000000032c <strlen>:
 32c:	00054783          	lbu	a5,0(a0)
 330:	00078e63          	beqz	a5,34c <strlen+0x20>
 334:	00050793          	mv	a5,a0
 338:	0017c703          	lbu	a4,1(a5)
 33c:	00178793          	addi	a5,a5,1
 340:	fe071ce3          	bnez	a4,338 <strlen+0xc>
 344:	40a78533          	sub	a0,a5,a0
 348:	00008067          	ret
 34c:	00000513          	li	a0,0
 350:	00008067          	ret

0000000000000354 <strnlen>:
 354:	00b506b3          	add	a3,a0,a1
 358:	00050793          	mv	a5,a0
 35c:	00059863          	bnez	a1,36c <strnlen+0x18>
 360:	0240006f          	j	384 <strnlen+0x30>
 364:	00178793          	addi	a5,a5,1
 368:	00f68a63          	beq	a3,a5,37c <strnlen+0x28>
 36c:	0007c703          	lbu	a4,0(a5)
 370:	fe071ae3          	bnez	a4,364 <strnlen+0x10>
 374:	40a78533          	sub	a0,a5,a0
 378:	00008067          	ret
 37c:	40a68533          	sub	a0,a3,a0
 380:	00008067          	ret
 384:	00000513          	li	a0,0
 388:	00008067          	ret

000000000000038c <strcmp>:
 38c:	00054783          	lbu	a5,0(a0)
 390:	00158593          	addi	a1,a1,1
 394:	00150513          	addi	a0,a0,1
 398:	fff5c703          	lbu	a4,-1(a1)
 39c:	00078a63          	beqz	a5,3b0 <strcmp+0x24>
 3a0:	fee786e3          	beq	a5,a4,38c <strcmp>
 3a4:	0007851b          	sext.w	a0,a5
 3a8:	40e5053b          	subw	a0,a0,a4
 3ac:	00008067          	ret
 3b0:	00000513          	li	a0,0
 3b4:	ff5ff06f          	j	3a8 <strcmp+0x1c>

00000000000003b8 <strcpy>:
 3b8:	00050793          	mv	a5,a0
 3bc:	0005c703          	lbu	a4,0(a1)
 3c0:	00178793          	addi	a5,a5,1
 3c4:	00158593          	addi	a1,a1,1
 3c8:	fee78fa3          	sb	a4,-1(a5)
 3cc:	fe0718e3          	bnez	a4,3bc <strcpy+0x4>
 3d0:	00008067          	ret

00000000000003d4 <atol>:
 3d4:	00054703          	lbu	a4,0(a0)
 3d8:	02000693          	li	a3,32
 3dc:	00050793          	mv	a5,a0
 3e0:	00d71863          	bne	a4,a3,3f0 <atol+0x1c>
 3e4:	0017c703          	lbu	a4,1(a5)
 3e8:	00178793          	addi	a5,a5,1
 3ec:	fed70ce3          	beq	a4,a3,3e4 <atol+0x10>
 3f0:	02d00693          	li	a3,45
 3f4:	06d70063          	beq	a4,a3,454 <atol+0x80>
 3f8:	02b00693          	li	a3,43
 3fc:	04d70063          	beq	a4,a3,43c <atol+0x68>
 400:	0007c683          	lbu	a3,0(a5)
 404:	00000593          	li	a1,0
 408:	04068263          	beqz	a3,44c <atol+0x78>
 40c:	00000513          	li	a0,0
 410:	00178793          	addi	a5,a5,1
 414:	00251713          	slli	a4,a0,0x2
 418:	fd06861b          	addiw	a2,a3,-48
 41c:	0007c683          	lbu	a3,0(a5)
 420:	00a70733          	add	a4,a4,a0
 424:	00171713          	slli	a4,a4,0x1
 428:	00e60533          	add	a0,a2,a4
 42c:	fe0692e3          	bnez	a3,410 <atol+0x3c>
 430:	02058063          	beqz	a1,450 <atol+0x7c>
 434:	40a00533          	neg	a0,a0
 438:	00008067          	ret
 43c:	0017c683          	lbu	a3,1(a5)
 440:	00000593          	li	a1,0
 444:	00178793          	addi	a5,a5,1
 448:	fc0692e3          	bnez	a3,40c <atol+0x38>
 44c:	00000513          	li	a0,0
 450:	00008067          	ret
 454:	0017c683          	lbu	a3,1(a5)
 458:	00100593          	li	a1,1
 45c:	00178793          	addi	a5,a5,1
 460:	fa0696e3          	bnez	a3,40c <atol+0x38>
 464:	00000513          	li	a0,0
 468:	fe9ff06f          	j	450 <atol+0x7c>

000000000000046c <main>:
 46c:	82010113          	addi	sp,sp,-2016
 470:	00100513          	li	a0,1
 474:	7c113c23          	sd	ra,2008(sp)
 478:	dddff0ef          	jal	ra,254 <setStats>
 47c:	00010793          	mv	a5,sp
 480:	62800713          	li	a4,1576
 484:	00001697          	auipc	a3,0x1
 488:	97c68693          	addi	a3,a3,-1668 # e00 <x>
 48c:	00002617          	auipc	a2,0x2
 490:	91460613          	addi	a2,a2,-1772 # 1da0 <idx>
 494:	00004597          	auipc	a1,0x4
 498:	e8c58593          	addi	a1,a1,-372 # 4320 <val>
 49c:	1f400513          	li	a0,500
 4a0:	bedff0ef          	jal	ra,8c <spmv>
 4a4:	00000513          	li	a0,0
 4a8:	dadff0ef          	jal	ra,254 <setStats>
 4ac:	00010793          	mv	a5,sp
 4b0:	00001717          	auipc	a4,0x1
 4b4:	12070713          	addi	a4,a4,288 # 15d0 <verify_data>
 4b8:	00000513          	li	a0,0
 4bc:	1f400893          	li	a7,500
 4c0:	0140006f          	j	4d4 <main+0x68>
 4c4:	0025051b          	addiw	a0,a0,2
 4c8:	03069663          	bne	a3,a6,4f4 <main+0x88>
 4cc:	00870713          	addi	a4,a4,8
 4d0:	03150863          	beq	a0,a7,500 <main+0x94>
 4d4:	0007a603          	lw	a2,0(a5)
 4d8:	00072583          	lw	a1,0(a4)
 4dc:	0047a683          	lw	a3,4(a5)
 4e0:	00472803          	lw	a6,4(a4)
 4e4:	00878793          	addi	a5,a5,8
 4e8:	0006869b          	sext.w	a3,a3
 4ec:	fcc58ce3          	beq	a1,a2,4c4 <main+0x58>
 4f0:	0015051b          	addiw	a0,a0,1
 4f4:	7d813083          	ld	ra,2008(sp)
 4f8:	7e010113          	addi	sp,sp,2016
 4fc:	00008067          	ret
 500:	00bc6537          	lui	a0,0xbc6
 504:	14e50513          	addi	a0,a0,334 # bc614e <STACK+0xbbd7a6>
 508:	fedff06f          	j	4f4 <main+0x88>

000000000000050c <end>:
 50c:	00000013          	nop
 510:	00000013          	nop
 514:	00000013          	nop
 518:	00000013          	nop
 51c:	00000013          	nop
 520:	00000013          	nop

0000000000000524 <_last>:
 524:	fe9ff06f          	j	50c <end>
