
spmv-loops-unrolled.riscv:     file format elf64-littleriscv


Disassembly of section .text:

0000000000000000 <_start>:
   0:	00000093          	li	ra,0
   4:	00000113          	li	sp,0
   8:	00000193          	li	gp,0
   c:	00000213          	li	tp,0
  10:	00000293          	li	t0,0
  14:	00000313          	li	t1,0
  18:	00000393          	li	t2,0
  1c:	00000413          	li	s0,0
  20:	00000493          	li	s1,0
  24:	00000513          	li	a0,0
  28:	00000593          	li	a1,0
  2c:	00000613          	li	a2,0
  30:	00000693          	li	a3,0
  34:	00000713          	li	a4,0
  38:	00000793          	li	a5,0
  3c:	00000813          	li	a6,0
  40:	00000893          	li	a7,0
  44:	00000913          	li	s2,0
  48:	00000993          	li	s3,0
  4c:	00000a13          	li	s4,0
  50:	00000a93          	li	s5,0
  54:	00000b13          	li	s6,0
  58:	00000b93          	li	s7,0
  5c:	00000c13          	li	s8,0
  60:	00000c93          	li	s9,0
  64:	00000d13          	li	s10,0
  68:	00000d93          	li	s11,0
  6c:	00000e13          	li	t3,0
  70:	00000e93          	li	t4,0
  74:	00000f13          	li	t5,0
  78:	00000f93          	li	t6,0
  7c:	00009117          	auipc	sp,0x9
  80:	f6410113          	addi	sp,sp,-156 # 8fe0 <STACK>
  84:	195000ef          	jal	ra,a18 <main>
  88:	2b90006f          	j	b40 <end>

000000000000008c <spmv>:
  8c:	3ea05c63          	blez	a0,484 <spmv+0x3f8>
  90:	f7010113          	addi	sp,sp,-144
  94:	00251513          	slli	a0,a0,0x2
  98:	05613c23          	sd	s6,88(sp)
  9c:	05713823          	sd	s7,80(sp)
  a0:	05813423          	sd	s8,72(sp)
  a4:	05913023          	sd	s9,64(sp)
  a8:	03a13c23          	sd	s10,56(sp)
  ac:	08813423          	sd	s0,136(sp)
  b0:	08913023          	sd	s1,128(sp)
  b4:	07213c23          	sd	s2,120(sp)
  b8:	07313823          	sd	s3,112(sp)
  bc:	07413423          	sd	s4,104(sp)
  c0:	07513023          	sd	s5,96(sp)
  c4:	03b13823          	sd	s11,48(sp)
  c8:	00058c93          	mv	s9,a1
  cc:	00060c13          	mv	s8,a2
  d0:	00070b13          	mv	s6,a4
  d4:	00078b93          	mv	s7,a5
  d8:	00a70333          	add	t1,a4,a0
  dc:	01058d13          	addi	s10,a1,16
  e0:	004b2483          	lw	s1,4(s6)
  e4:	000b2f03          	lw	t5,0(s6)
  e8:	ffd4879b          	addiw	a5,s1,-3
  ec:	38ff5463          	bge	t5,a5,474 <spmv+0x3e8>
  f0:	ffc4829b          	addiw	t0,s1,-4
  f4:	41e283bb          	subw	t2,t0,t5
  f8:	0023da1b          	srliw	s4,t2,0x2
  fc:	002a1413          	slli	s0,s4,0x2
 100:	01e40633          	add	a2,s0,t5
 104:	002f1593          	slli	a1,t5,0x2
 108:	00261713          	slli	a4,a2,0x2
 10c:	01a70a33          	add	s4,a4,s10
 110:	00bc8633          	add	a2,s9,a1
 114:	40ca0833          	sub	a6,s4,a2
 118:	ff080893          	addi	a7,a6,-16
 11c:	0048d913          	srli	s2,a7,0x4
 120:	00197993          	andi	s3,s2,1
 124:	00bc05b3          	add	a1,s8,a1
 128:	0023de9b          	srliw	t4,t2,0x2
 12c:	00000893          	li	a7,0
 130:	00000e13          	li	t3,0
 134:	00000513          	li	a0,0
 138:	00000793          	li	a5,0
 13c:	06099c63          	bnez	s3,1b4 <spmv+0x128>
 140:	0085aa83          	lw	s5,8(a1)
 144:	00c5ad83          	lw	s11,12(a1)
 148:	00c62f83          	lw	t6,12(a2)
 14c:	002a9513          	slli	a0,s5,0x2
 150:	002d9793          	slli	a5,s11,0x2
 154:	00a682b3          	add	t0,a3,a0
 158:	00f683b3          	add	t2,a3,a5
 15c:	0002a403          	lw	s0,0(t0)
 160:	00862e03          	lw	t3,8(a2)
 164:	0003a883          	lw	a7,0(t2)
 168:	0005a803          	lw	a6,0(a1)
 16c:	028e0e3b          	mulw	t3,t3,s0
 170:	0045a703          	lw	a4,4(a1)
 174:	00281913          	slli	s2,a6,0x2
 178:	01268ab3          	add	s5,a3,s2
 17c:	00271d93          	slli	s11,a4,0x2
 180:	01b682b3          	add	t0,a3,s11
 184:	00062783          	lw	a5,0(a2)
 188:	00462503          	lw	a0,4(a2)
 18c:	000aa383          	lw	t2,0(s5)
 190:	0002a403          	lw	s0,0(t0)
 194:	031f88bb          	mulw	a7,t6,a7
 198:	01060613          	addi	a2,a2,16
 19c:	000e0993          	mv	s3,t3
 1a0:	01058593          	addi	a1,a1,16
 1a4:	027787bb          	mulw	a5,a5,t2
 1a8:	00088f93          	mv	t6,a7
 1ac:	0285053b          	mulw	a0,a0,s0
 1b0:	12ca0463          	beq	s4,a2,2d8 <spmv+0x24c>
 1b4:	00913023          	sd	s1,0(sp)
 1b8:	01e13423          	sd	t5,8(sp)
 1bc:	00613823          	sd	t1,16(sp)
 1c0:	01713c23          	sd	s7,24(sp)
 1c4:	03613023          	sd	s6,32(sp)
 1c8:	03913423          	sd	s9,40(sp)
 1cc:	0085ab03          	lw	s6,8(a1)
 1d0:	00c5ab83          	lw	s7,12(a1)
 1d4:	0005ac83          	lw	s9,0(a1)
 1d8:	0045a303          	lw	t1,4(a1)
 1dc:	0185a903          	lw	s2,24(a1)
 1e0:	01c5a483          	lw	s1,28(a1)
 1e4:	0105aa83          	lw	s5,16(a1)
 1e8:	0145a383          	lw	t2,20(a1)
 1ec:	002b1813          	slli	a6,s6,0x2
 1f0:	002b9713          	slli	a4,s7,0x2
 1f4:	00e68433          	add	s0,a3,a4
 1f8:	002c9f13          	slli	t5,s9,0x2
 1fc:	00231993          	slli	s3,t1,0x2
 200:	01068db3          	add	s11,a3,a6
 204:	00291b13          	slli	s6,s2,0x2
 208:	00249b93          	slli	s7,s1,0x2
 20c:	00042c83          	lw	s9,0(s0)
 210:	01668933          	add	s2,a3,s6
 214:	017684b3          	add	s1,a3,s7
 218:	00862283          	lw	t0,8(a2)
 21c:	00c62f83          	lw	t6,12(a2)
 220:	000dad83          	lw	s11,0(s11)
 224:	013689b3          	add	s3,a3,s3
 228:	002a9413          	slli	s0,s5,0x2
 22c:	01e68f33          	add	t5,a3,t5
 230:	00239393          	slli	t2,t2,0x2
 234:	00062b83          	lw	s7,0(a2)
 238:	00462303          	lw	t1,4(a2)
 23c:	01862703          	lw	a4,24(a2)
 240:	01c62803          	lw	a6,28(a2)
 244:	0009ab03          	lw	s6,0(s3)
 248:	00092a83          	lw	s5,0(s2)
 24c:	0004a983          	lw	s3,0(s1)
 250:	000f2f03          	lw	t5,0(t5)
 254:	00868433          	add	s0,a3,s0
 258:	007683b3          	add	t2,a3,t2
 25c:	01062903          	lw	s2,16(a2)
 260:	01462483          	lw	s1,20(a2)
 264:	00042403          	lw	s0,0(s0)
 268:	0003a383          	lw	t2,0(t2)
 26c:	039f8fbb          	mulw	t6,t6,s9
 270:	02060613          	addi	a2,a2,32
 274:	02058593          	addi	a1,a1,32
 278:	03b282bb          	mulw	t0,t0,s11
 27c:	011f88bb          	addw	a7,t6,a7
 280:	03eb8dbb          	mulw	s11,s7,t5
 284:	01c28e3b          	addw	t3,t0,t3
 288:	03630cbb          	mulw	s9,t1,s6
 28c:	00fd87bb          	addw	a5,s11,a5
 290:	0338033b          	mulw	t1,a6,s3
 294:	00ac853b          	addw	a0,s9,a0
 298:	03570bbb          	mulw	s7,a4,s5
 29c:	011308bb          	addw	a7,t1,a7
 2a0:	00088f93          	mv	t6,a7
 2a4:	0289073b          	mulw	a4,s2,s0
 2a8:	01cb8e3b          	addw	t3,s7,t3
 2ac:	000e0993          	mv	s3,t3
 2b0:	0274883b          	mulw	a6,s1,t2
 2b4:	00f707bb          	addw	a5,a4,a5
 2b8:	00a8053b          	addw	a0,a6,a0
 2bc:	f0ca18e3          	bne	s4,a2,1cc <spmv+0x140>
 2c0:	00013483          	ld	s1,0(sp)
 2c4:	00813f03          	ld	t5,8(sp)
 2c8:	01013303          	ld	t1,16(sp)
 2cc:	01813b83          	ld	s7,24(sp)
 2d0:	02013b03          	ld	s6,32(sp)
 2d4:	02813c83          	ld	s9,40(sp)
 2d8:	004f0a1b          	addiw	s4,t5,4
 2dc:	002e9e9b          	slliw	t4,t4,0x2
 2e0:	014e8f3b          	addw	t5,t4,s4
 2e4:	01f98fbb          	addw	t6,s3,t6
 2e8:	129f5e63          	bge	t5,s1,424 <spmv+0x398>
 2ec:	41e4863b          	subw	a2,s1,t5
 2f0:	02061593          	slli	a1,a2,0x20
 2f4:	0205da93          	srli	s5,a1,0x20
 2f8:	01ea89b3          	add	s3,s5,t5
 2fc:	00299913          	slli	s2,s3,0x2
 300:	002f1f13          	slli	t5,t5,0x2
 304:	01ec8733          	add	a4,s9,t5
 308:	012c84b3          	add	s1,s9,s2
 30c:	40e48433          	sub	s0,s1,a4
 310:	ffc40393          	addi	t2,s0,-4
 314:	0023d293          	srli	t0,t2,0x2
 318:	00128e13          	addi	t3,t0,1
 31c:	003e7d93          	andi	s11,t3,3
 320:	01ec0f33          	add	t5,s8,t5
 324:	080d8263          	beqz	s11,3a8 <spmv+0x31c>
 328:	00100893          	li	a7,1
 32c:	051d8a63          	beq	s11,a7,380 <spmv+0x2f4>
 330:	00200813          	li	a6,2
 334:	030d8463          	beq	s11,a6,35c <spmv+0x2d0>
 338:	000f2a03          	lw	s4,0(t5)
 33c:	00072e83          	lw	t4,0(a4)
 340:	004f0f13          	addi	t5,t5,4
 344:	002a1613          	slli	a2,s4,0x2
 348:	00c685b3          	add	a1,a3,a2
 34c:	0005aa83          	lw	s5,0(a1)
 350:	00470713          	addi	a4,a4,4
 354:	035e89bb          	mulw	s3,t4,s5
 358:	00f987bb          	addw	a5,s3,a5
 35c:	000f2903          	lw	s2,0(t5)
 360:	00072403          	lw	s0,0(a4)
 364:	004f0f13          	addi	t5,t5,4
 368:	00291393          	slli	t2,s2,0x2
 36c:	007682b3          	add	t0,a3,t2
 370:	0002ae03          	lw	t3,0(t0)
 374:	00470713          	addi	a4,a4,4
 378:	03c40dbb          	mulw	s11,s0,t3
 37c:	00fd87bb          	addw	a5,s11,a5
 380:	000f2883          	lw	a7,0(t5)
 384:	00072803          	lw	a6,0(a4)
 388:	00470713          	addi	a4,a4,4
 38c:	00289a13          	slli	s4,a7,0x2
 390:	01468eb3          	add	t4,a3,s4
 394:	000ea603          	lw	a2,0(t4)
 398:	004f0f13          	addi	t5,t5,4
 39c:	02c805bb          	mulw	a1,a6,a2
 3a0:	00f587bb          	addw	a5,a1,a5
 3a4:	08e48063          	beq	s1,a4,424 <spmv+0x398>
 3a8:	000f2a83          	lw	s5,0(t5)
 3ac:	00072d83          	lw	s11,0(a4)
 3b0:	004f2983          	lw	s3,4(t5)
 3b4:	002a9413          	slli	s0,s5,0x2
 3b8:	008683b3          	add	t2,a3,s0
 3bc:	0003a883          	lw	a7,0(t2)
 3c0:	008f2903          	lw	s2,8(t5)
 3c4:	00cf2283          	lw	t0,12(t5)
 3c8:	031d83bb          	mulw	t2,s11,a7
 3cc:	00299e13          	slli	t3,s3,0x2
 3d0:	01c68a33          	add	s4,a3,t3
 3d4:	00291e93          	slli	t4,s2,0x2
 3d8:	00472803          	lw	a6,4(a4)
 3dc:	000a2603          	lw	a2,0(s4)
 3e0:	01d68ab3          	add	s5,a3,t4
 3e4:	00229993          	slli	s3,t0,0x2
 3e8:	00872583          	lw	a1,8(a4)
 3ec:	000aa903          	lw	s2,0(s5)
 3f0:	013682b3          	add	t0,a3,s3
 3f4:	00c72403          	lw	s0,12(a4)
 3f8:	0002ae03          	lw	t3,0(t0)
 3fc:	02c80dbb          	mulw	s11,a6,a2
 400:	00f388bb          	addw	a7,t2,a5
 404:	01070713          	addi	a4,a4,16
 408:	010f0f13          	addi	t5,t5,16
 40c:	032587bb          	mulw	a5,a1,s2
 410:	011d8a3b          	addw	s4,s11,a7
 414:	03c40ebb          	mulw	t4,s0,t3
 418:	0147883b          	addw	a6,a5,s4
 41c:	010e87bb          	addw	a5,t4,a6
 420:	f8e494e3          	bne	s1,a4,3a8 <spmv+0x31c>
 424:	00a7853b          	addw	a0,a5,a0
 428:	01f50fbb          	addw	t6,a0,t6
 42c:	01fba023          	sw	t6,0(s7)
 430:	004b0b13          	addi	s6,s6,4
 434:	004b8b93          	addi	s7,s7,4
 438:	cb6314e3          	bne	t1,s6,e0 <spmv+0x54>
 43c:	08813403          	ld	s0,136(sp)
 440:	08013483          	ld	s1,128(sp)
 444:	07813903          	ld	s2,120(sp)
 448:	07013983          	ld	s3,112(sp)
 44c:	06813a03          	ld	s4,104(sp)
 450:	06013a83          	ld	s5,96(sp)
 454:	05813b03          	ld	s6,88(sp)
 458:	05013b83          	ld	s7,80(sp)
 45c:	04813c03          	ld	s8,72(sp)
 460:	04013c83          	ld	s9,64(sp)
 464:	03813d03          	ld	s10,56(sp)
 468:	03013d83          	ld	s11,48(sp)
 46c:	09010113          	addi	sp,sp,144
 470:	00008067          	ret
 474:	00000f93          	li	t6,0
 478:	00000513          	li	a0,0
 47c:	00000793          	li	a5,0
 480:	e69ff06f          	j	2e8 <spmv+0x25c>
 484:	00008067          	ret

0000000000000488 <setStats>:
 488:	00008067          	ret

000000000000048c <memcpy>:
 48c:	00b567b3          	or	a5,a0,a1
 490:	00c7e2b3          	or	t0,a5,a2
 494:	0072f313          	andi	t1,t0,7
 498:	00c506b3          	add	a3,a0,a2
 49c:	10030863          	beqz	t1,5ac <memcpy+0x120>
 4a0:	00c58633          	add	a2,a1,a2
 4a4:	00050793          	mv	a5,a0
 4a8:	10d57063          	bgeu	a0,a3,5a8 <memcpy+0x11c>
 4ac:	40b60733          	sub	a4,a2,a1
 4b0:	00777393          	andi	t2,a4,7
 4b4:	0a038463          	beqz	t2,55c <memcpy+0xd0>
 4b8:	00100813          	li	a6,1
 4bc:	09038663          	beq	t2,a6,548 <memcpy+0xbc>
 4c0:	00200893          	li	a7,2
 4c4:	07138a63          	beq	t2,a7,538 <memcpy+0xac>
 4c8:	00300e13          	li	t3,3
 4cc:	05c38e63          	beq	t2,t3,528 <memcpy+0x9c>
 4d0:	00400e93          	li	t4,4
 4d4:	05d38263          	beq	t2,t4,518 <memcpy+0x8c>
 4d8:	00500f13          	li	t5,5
 4dc:	03e38663          	beq	t2,t5,508 <memcpy+0x7c>
 4e0:	00600f93          	li	t6,6
 4e4:	01f38a63          	beq	t2,t6,4f8 <memcpy+0x6c>
 4e8:	0005c283          	lbu	t0,0(a1)
 4ec:	00150793          	addi	a5,a0,1
 4f0:	00158593          	addi	a1,a1,1
 4f4:	00550023          	sb	t0,0(a0)
 4f8:	0005c303          	lbu	t1,0(a1)
 4fc:	00178793          	addi	a5,a5,1
 500:	00158593          	addi	a1,a1,1
 504:	fe678fa3          	sb	t1,-1(a5)
 508:	0005c683          	lbu	a3,0(a1)
 50c:	00178793          	addi	a5,a5,1
 510:	00158593          	addi	a1,a1,1
 514:	fed78fa3          	sb	a3,-1(a5)
 518:	0005c703          	lbu	a4,0(a1)
 51c:	00178793          	addi	a5,a5,1
 520:	00158593          	addi	a1,a1,1
 524:	fee78fa3          	sb	a4,-1(a5)
 528:	0005c383          	lbu	t2,0(a1)
 52c:	00178793          	addi	a5,a5,1
 530:	00158593          	addi	a1,a1,1
 534:	fe778fa3          	sb	t2,-1(a5)
 538:	0005c803          	lbu	a6,0(a1)
 53c:	00178793          	addi	a5,a5,1
 540:	00158593          	addi	a1,a1,1
 544:	ff078fa3          	sb	a6,-1(a5)
 548:	0005c883          	lbu	a7,0(a1)
 54c:	00158593          	addi	a1,a1,1
 550:	00178793          	addi	a5,a5,1
 554:	ff178fa3          	sb	a7,-1(a5)
 558:	16c58c63          	beq	a1,a2,6d0 <memcpy+0x244>
 55c:	0005ce03          	lbu	t3,0(a1)
 560:	00858593          	addi	a1,a1,8
 564:	00878793          	addi	a5,a5,8
 568:	ffc78c23          	sb	t3,-8(a5)
 56c:	ff95ce83          	lbu	t4,-7(a1)
 570:	ffd78ca3          	sb	t4,-7(a5)
 574:	ffa5cf03          	lbu	t5,-6(a1)
 578:	ffe78d23          	sb	t5,-6(a5)
 57c:	ffb5cf83          	lbu	t6,-5(a1)
 580:	fff78da3          	sb	t6,-5(a5)
 584:	ffc5c283          	lbu	t0,-4(a1)
 588:	fe578e23          	sb	t0,-4(a5)
 58c:	ffd5c303          	lbu	t1,-3(a1)
 590:	fe678ea3          	sb	t1,-3(a5)
 594:	ffe5c683          	lbu	a3,-2(a1)
 598:	fed78f23          	sb	a3,-2(a5)
 59c:	fff5c703          	lbu	a4,-1(a1)
 5a0:	fee78fa3          	sb	a4,-1(a5)
 5a4:	fac59ce3          	bne	a1,a2,55c <memcpy+0xd0>
 5a8:	00008067          	ret
 5ac:	fed57ee3          	bgeu	a0,a3,5a8 <memcpy+0x11c>
 5b0:	0005b603          	ld	a2,0(a1)
 5b4:	fff54393          	not	t2,a0
 5b8:	00768833          	add	a6,a3,t2
 5bc:	00385893          	srli	a7,a6,0x3
 5c0:	00850793          	addi	a5,a0,8
 5c4:	fec7bc23          	sd	a2,-8(a5)
 5c8:	00858593          	addi	a1,a1,8
 5cc:	0078fe13          	andi	t3,a7,7
 5d0:	10d7f463          	bgeu	a5,a3,6d8 <memcpy+0x24c>
 5d4:	080e0c63          	beqz	t3,66c <memcpy+0x1e0>
 5d8:	00100e93          	li	t4,1
 5dc:	07de0e63          	beq	t3,t4,658 <memcpy+0x1cc>
 5e0:	00200f13          	li	t5,2
 5e4:	07ee0263          	beq	t3,t5,648 <memcpy+0x1bc>
 5e8:	00300f93          	li	t6,3
 5ec:	05fe0663          	beq	t3,t6,638 <memcpy+0x1ac>
 5f0:	00400293          	li	t0,4
 5f4:	025e0a63          	beq	t3,t0,628 <memcpy+0x19c>
 5f8:	00500313          	li	t1,5
 5fc:	006e0e63          	beq	t3,t1,618 <memcpy+0x18c>
 600:	00600713          	li	a4,6
 604:	0aee1c63          	bne	t3,a4,6bc <memcpy+0x230>
 608:	0005b383          	ld	t2,0(a1)
 60c:	00878793          	addi	a5,a5,8
 610:	00858593          	addi	a1,a1,8
 614:	fe77bc23          	sd	t2,-8(a5)
 618:	0005b803          	ld	a6,0(a1)
 61c:	00878793          	addi	a5,a5,8
 620:	00858593          	addi	a1,a1,8
 624:	ff07bc23          	sd	a6,-8(a5)
 628:	0005b883          	ld	a7,0(a1)
 62c:	00878793          	addi	a5,a5,8
 630:	00858593          	addi	a1,a1,8
 634:	ff17bc23          	sd	a7,-8(a5)
 638:	0005be03          	ld	t3,0(a1)
 63c:	00878793          	addi	a5,a5,8
 640:	00858593          	addi	a1,a1,8
 644:	ffc7bc23          	sd	t3,-8(a5)
 648:	0005be83          	ld	t4,0(a1)
 64c:	00878793          	addi	a5,a5,8
 650:	00858593          	addi	a1,a1,8
 654:	ffd7bc23          	sd	t4,-8(a5)
 658:	0005bf03          	ld	t5,0(a1)
 65c:	00878793          	addi	a5,a5,8
 660:	00858593          	addi	a1,a1,8
 664:	ffe7bc23          	sd	t5,-8(a5)
 668:	06d7f663          	bgeu	a5,a3,6d4 <memcpy+0x248>
 66c:	0005bf83          	ld	t6,0(a1)
 670:	04058593          	addi	a1,a1,64
 674:	04078793          	addi	a5,a5,64
 678:	fdf7b023          	sd	t6,-64(a5)
 67c:	fc85b283          	ld	t0,-56(a1)
 680:	fc57b423          	sd	t0,-56(a5)
 684:	fd05b303          	ld	t1,-48(a1)
 688:	fc67b823          	sd	t1,-48(a5)
 68c:	fd85b703          	ld	a4,-40(a1)
 690:	fce7bc23          	sd	a4,-40(a5)
 694:	fe05b603          	ld	a2,-32(a1)
 698:	fec7b023          	sd	a2,-32(a5)
 69c:	fe85b383          	ld	t2,-24(a1)
 6a0:	fe77b423          	sd	t2,-24(a5)
 6a4:	ff05b803          	ld	a6,-16(a1)
 6a8:	ff07b823          	sd	a6,-16(a5)
 6ac:	ff85b883          	ld	a7,-8(a1)
 6b0:	ff17bc23          	sd	a7,-8(a5)
 6b4:	fad7ece3          	bltu	a5,a3,66c <memcpy+0x1e0>
 6b8:	00008067          	ret
 6bc:	0005b603          	ld	a2,0(a1)
 6c0:	00878793          	addi	a5,a5,8
 6c4:	00858593          	addi	a1,a1,8
 6c8:	fec7bc23          	sd	a2,-8(a5)
 6cc:	f3dff06f          	j	608 <memcpy+0x17c>
 6d0:	00008067          	ret
 6d4:	00008067          	ret
 6d8:	00008067          	ret

00000000000006dc <memset>:
 6dc:	ff010113          	addi	sp,sp,-16
 6e0:	00c567b3          	or	a5,a0,a2
 6e4:	00113423          	sd	ra,8(sp)
 6e8:	00813023          	sd	s0,0(sp)
 6ec:	0077f093          	andi	ra,a5,7
 6f0:	00050413          	mv	s0,a0
 6f4:	00c50733          	add	a4,a0,a2
 6f8:	02008263          	beqz	ra,71c <memset+0x40>
 6fc:	00e57663          	bgeu	a0,a4,708 <memset+0x2c>
 700:	0ff5f593          	zext.b	a1,a1
 704:	fd9ff0ef          	jal	ra,6dc <memset>
 708:	00813083          	ld	ra,8(sp)
 70c:	00040513          	mv	a0,s0
 710:	00013403          	ld	s0,0(sp)
 714:	01010113          	addi	sp,sp,16
 718:	00008067          	ret
 71c:	0ff5f593          	zext.b	a1,a1
 720:	00006297          	auipc	t0,0x6
 724:	7b82b283          	ld	t0,1976(t0) # 6ed8 <val+0x2580>
 728:	02558333          	mul	t1,a1,t0
 72c:	fce57ee3          	bgeu	a0,a4,708 <memset+0x2c>
 730:	fff54693          	not	a3,a0
 734:	00d703b3          	add	t2,a4,a3
 738:	0033d513          	srli	a0,t2,0x3
 73c:	00840793          	addi	a5,s0,8
 740:	fe67bc23          	sd	t1,-8(a5)
 744:	00757813          	andi	a6,a0,7
 748:	fce7f0e3          	bgeu	a5,a4,708 <memset+0x2c>
 74c:	06080463          	beqz	a6,7b4 <memset+0xd8>
 750:	00100613          	li	a2,1
 754:	04c80a63          	beq	a6,a2,7a8 <memset+0xcc>
 758:	00200893          	li	a7,2
 75c:	05180263          	beq	a6,a7,7a0 <memset+0xc4>
 760:	00300e13          	li	t3,3
 764:	03c80a63          	beq	a6,t3,798 <memset+0xbc>
 768:	00400e93          	li	t4,4
 76c:	03d80263          	beq	a6,t4,790 <memset+0xb4>
 770:	00500f13          	li	t5,5
 774:	01e80a63          	beq	a6,t5,788 <memset+0xac>
 778:	00600f93          	li	t6,6
 77c:	07f81263          	bne	a6,t6,7e0 <memset+0x104>
 780:	0067b023          	sd	t1,0(a5)
 784:	00878793          	addi	a5,a5,8
 788:	0067b023          	sd	t1,0(a5)
 78c:	00878793          	addi	a5,a5,8
 790:	0067b023          	sd	t1,0(a5)
 794:	00878793          	addi	a5,a5,8
 798:	0067b023          	sd	t1,0(a5)
 79c:	00878793          	addi	a5,a5,8
 7a0:	0067b023          	sd	t1,0(a5)
 7a4:	00878793          	addi	a5,a5,8
 7a8:	00878793          	addi	a5,a5,8
 7ac:	fe67bc23          	sd	t1,-8(a5)
 7b0:	f4e7fce3          	bgeu	a5,a4,708 <memset+0x2c>
 7b4:	0067b023          	sd	t1,0(a5)
 7b8:	0067b423          	sd	t1,8(a5)
 7bc:	0067b823          	sd	t1,16(a5)
 7c0:	0067bc23          	sd	t1,24(a5)
 7c4:	0267b023          	sd	t1,32(a5)
 7c8:	0267b423          	sd	t1,40(a5)
 7cc:	0267b823          	sd	t1,48(a5)
 7d0:	0267bc23          	sd	t1,56(a5)
 7d4:	04078793          	addi	a5,a5,64
 7d8:	fce7eee3          	bltu	a5,a4,7b4 <memset+0xd8>
 7dc:	f2dff06f          	j	708 <memset+0x2c>
 7e0:	0067b023          	sd	t1,0(a5)
 7e4:	00878793          	addi	a5,a5,8
 7e8:	f99ff06f          	j	780 <memset+0xa4>

00000000000007ec <strlen>:
 7ec:	00054783          	lbu	a5,0(a0)
 7f0:	00078e63          	beqz	a5,80c <strlen+0x20>
 7f4:	00050293          	mv	t0,a0
 7f8:	0012c703          	lbu	a4,1(t0)
 7fc:	00128293          	addi	t0,t0,1
 800:	fe071ce3          	bnez	a4,7f8 <strlen+0xc>
 804:	40a28533          	sub	a0,t0,a0
 808:	00008067          	ret
 80c:	00000513          	li	a0,0
 810:	00008067          	ret

0000000000000814 <strnlen>:
 814:	00b506b3          	add	a3,a0,a1
 818:	00050793          	mv	a5,a0
 81c:	10058a63          	beqz	a1,930 <strnlen+0x11c>
 820:	40a68733          	sub	a4,a3,a0
 824:	00777293          	andi	t0,a4,7
 828:	08028063          	beqz	t0,8a8 <strnlen+0x94>
 82c:	00100613          	li	a2,1
 830:	06c28463          	beq	t0,a2,898 <strnlen+0x84>
 834:	00200313          	li	t1,2
 838:	04628a63          	beq	t0,t1,88c <strnlen+0x78>
 83c:	00300393          	li	t2,3
 840:	04728063          	beq	t0,t2,880 <strnlen+0x6c>
 844:	00400593          	li	a1,4
 848:	02b28663          	beq	t0,a1,874 <strnlen+0x60>
 84c:	00500813          	li	a6,5
 850:	01028c63          	beq	t0,a6,868 <strnlen+0x54>
 854:	00600893          	li	a7,6
 858:	0d129463          	bne	t0,a7,920 <strnlen+0x10c>
 85c:	0007ce83          	lbu	t4,0(a5)
 860:	0a0e8c63          	beqz	t4,918 <strnlen+0x104>
 864:	00178793          	addi	a5,a5,1
 868:	0007cf03          	lbu	t5,0(a5)
 86c:	0a0f0663          	beqz	t5,918 <strnlen+0x104>
 870:	00178793          	addi	a5,a5,1
 874:	0007cf83          	lbu	t6,0(a5)
 878:	0a0f8063          	beqz	t6,918 <strnlen+0x104>
 87c:	00178793          	addi	a5,a5,1
 880:	0007c703          	lbu	a4,0(a5)
 884:	08070a63          	beqz	a4,918 <strnlen+0x104>
 888:	00178793          	addi	a5,a5,1
 88c:	0007c283          	lbu	t0,0(a5)
 890:	08028463          	beqz	t0,918 <strnlen+0x104>
 894:	00178793          	addi	a5,a5,1
 898:	0007c603          	lbu	a2,0(a5)
 89c:	06060e63          	beqz	a2,918 <strnlen+0x104>
 8a0:	00178793          	addi	a5,a5,1
 8a4:	06f68663          	beq	a3,a5,910 <strnlen+0xfc>
 8a8:	0007c303          	lbu	t1,0(a5)
 8ac:	06030663          	beqz	t1,918 <strnlen+0x104>
 8b0:	0017c383          	lbu	t2,1(a5)
 8b4:	00178793          	addi	a5,a5,1
 8b8:	00078593          	mv	a1,a5
 8bc:	04038e63          	beqz	t2,918 <strnlen+0x104>
 8c0:	0017c803          	lbu	a6,1(a5)
 8c4:	00178793          	addi	a5,a5,1
 8c8:	04080863          	beqz	a6,918 <strnlen+0x104>
 8cc:	0025c883          	lbu	a7,2(a1)
 8d0:	00258793          	addi	a5,a1,2
 8d4:	04088263          	beqz	a7,918 <strnlen+0x104>
 8d8:	0035ce03          	lbu	t3,3(a1)
 8dc:	00358793          	addi	a5,a1,3
 8e0:	020e0c63          	beqz	t3,918 <strnlen+0x104>
 8e4:	0045ce83          	lbu	t4,4(a1)
 8e8:	00458793          	addi	a5,a1,4
 8ec:	020e8663          	beqz	t4,918 <strnlen+0x104>
 8f0:	0055cf03          	lbu	t5,5(a1)
 8f4:	00558793          	addi	a5,a1,5
 8f8:	020f0063          	beqz	t5,918 <strnlen+0x104>
 8fc:	0065cf83          	lbu	t6,6(a1)
 900:	00658793          	addi	a5,a1,6
 904:	000f8a63          	beqz	t6,918 <strnlen+0x104>
 908:	00758793          	addi	a5,a1,7
 90c:	f8f69ee3          	bne	a3,a5,8a8 <strnlen+0x94>
 910:	40a68533          	sub	a0,a3,a0
 914:	00008067          	ret
 918:	40a78533          	sub	a0,a5,a0
 91c:	00008067          	ret
 920:	00054e03          	lbu	t3,0(a0)
 924:	fe0e0ae3          	beqz	t3,918 <strnlen+0x104>
 928:	00150793          	addi	a5,a0,1
 92c:	f31ff06f          	j	85c <strnlen+0x48>
 930:	00000513          	li	a0,0
 934:	00008067          	ret

0000000000000938 <strcmp>:
 938:	00054783          	lbu	a5,0(a0)
 93c:	00158593          	addi	a1,a1,1
 940:	00150513          	addi	a0,a0,1
 944:	fff5c703          	lbu	a4,-1(a1)
 948:	00078a63          	beqz	a5,95c <strcmp+0x24>
 94c:	fee786e3          	beq	a5,a4,938 <strcmp>
 950:	0007851b          	sext.w	a0,a5
 954:	40e5053b          	subw	a0,a0,a4
 958:	00008067          	ret
 95c:	00000513          	li	a0,0
 960:	ff5ff06f          	j	954 <strcmp+0x1c>

0000000000000964 <strcpy>:
 964:	00050793          	mv	a5,a0
 968:	0005c703          	lbu	a4,0(a1)
 96c:	00178793          	addi	a5,a5,1
 970:	00158593          	addi	a1,a1,1
 974:	fee78fa3          	sb	a4,-1(a5)
 978:	fe0718e3          	bnez	a4,968 <strcpy+0x4>
 97c:	00008067          	ret

0000000000000980 <atol>:
 980:	00054703          	lbu	a4,0(a0)
 984:	02000693          	li	a3,32
 988:	00050793          	mv	a5,a0
 98c:	00d71863          	bne	a4,a3,99c <atol+0x1c>
 990:	0017c703          	lbu	a4,1(a5)
 994:	00178793          	addi	a5,a5,1
 998:	fed70ce3          	beq	a4,a3,990 <atol+0x10>
 99c:	02d00293          	li	t0,45
 9a0:	06570063          	beq	a4,t0,a00 <atol+0x80>
 9a4:	02b00313          	li	t1,43
 9a8:	04670063          	beq	a4,t1,9e8 <atol+0x68>
 9ac:	0007c383          	lbu	t2,0(a5)
 9b0:	00000593          	li	a1,0
 9b4:	04038263          	beqz	t2,9f8 <atol+0x78>
 9b8:	00000513          	li	a0,0
 9bc:	00178793          	addi	a5,a5,1
 9c0:	fd03861b          	addiw	a2,t2,-48
 9c4:	00251813          	slli	a6,a0,0x2
 9c8:	0007c383          	lbu	t2,0(a5)
 9cc:	00a80533          	add	a0,a6,a0
 9d0:	00151893          	slli	a7,a0,0x1
 9d4:	01160533          	add	a0,a2,a7
 9d8:	fe0392e3          	bnez	t2,9bc <atol+0x3c>
 9dc:	02058063          	beqz	a1,9fc <atol+0x7c>
 9e0:	40a00533          	neg	a0,a0
 9e4:	00008067          	ret
 9e8:	0017c383          	lbu	t2,1(a5)
 9ec:	00000593          	li	a1,0
 9f0:	00178793          	addi	a5,a5,1
 9f4:	fc0392e3          	bnez	t2,9b8 <atol+0x38>
 9f8:	00000513          	li	a0,0
 9fc:	00008067          	ret
 a00:	0017c383          	lbu	t2,1(a5)
 a04:	00100593          	li	a1,1
 a08:	00178793          	addi	a5,a5,1
 a0c:	fa0396e3          	bnez	t2,9b8 <atol+0x38>
 a10:	00000513          	li	a0,0
 a14:	fe9ff06f          	j	9fc <atol+0x7c>

0000000000000a18 <main>:
 a18:	82010113          	addi	sp,sp,-2016
 a1c:	00100513          	li	a0,1
 a20:	7c113c23          	sd	ra,2008(sp)
 a24:	a65ff0ef          	jal	ra,488 <setStats>
 a28:	00010793          	mv	a5,sp
 a2c:	00000717          	auipc	a4,0x0
 a30:	23470713          	addi	a4,a4,564 # c60 <ptr>
 a34:	00001697          	auipc	a3,0x1
 a38:	a0468693          	addi	a3,a3,-1532 # 1438 <x>
 a3c:	00002617          	auipc	a2,0x2
 a40:	99c60613          	addi	a2,a2,-1636 # 23d8 <idx>
 a44:	00004597          	auipc	a1,0x4
 a48:	f1458593          	addi	a1,a1,-236 # 4958 <val>
 a4c:	1f400513          	li	a0,500
 a50:	e3cff0ef          	jal	ra,8c <spmv>
 a54:	00000513          	li	a0,0
 a58:	a31ff0ef          	jal	ra,488 <setStats>
 a5c:	00010793          	mv	a5,sp
 a60:	00001717          	auipc	a4,0x1
 a64:	1a870713          	addi	a4,a4,424 # 1c08 <verify_data>
 a68:	00000513          	li	a0,0
 a6c:	1f400e13          	li	t3,500
 a70:	0007a603          	lw	a2,0(a5)
 a74:	00072583          	lw	a1,0(a4)
 a78:	0047a683          	lw	a3,4(a5)
 a7c:	00472803          	lw	a6,4(a4)
 a80:	0006809b          	sext.w	ra,a3
 a84:	0ac59a63          	bne	a1,a2,b38 <main+0x120>
 a88:	0025051b          	addiw	a0,a0,2
 a8c:	0b009063          	bne	ra,a6,b2c <main+0x114>
 a90:	0087a283          	lw	t0,8(a5)
 a94:	00872383          	lw	t2,8(a4)
 a98:	00c7ae83          	lw	t4,12(a5)
 a9c:	00c72f03          	lw	t5,12(a4)
 aa0:	00878313          	addi	t1,a5,8
 aa4:	00870893          	addi	a7,a4,8
 aa8:	000e8f9b          	sext.w	t6,t4
 aac:	08539663          	bne	t2,t0,b38 <main+0x120>
 ab0:	0025051b          	addiw	a0,a0,2
 ab4:	07ef9c63          	bne	t6,t5,b2c <main+0x114>
 ab8:	0107a603          	lw	a2,16(a5)
 abc:	01072583          	lw	a1,16(a4)
 ac0:	0147a683          	lw	a3,20(a5)
 ac4:	01472803          	lw	a6,20(a4)
 ac8:	0006809b          	sext.w	ra,a3
 acc:	06c59663          	bne	a1,a2,b38 <main+0x120>
 ad0:	0025051b          	addiw	a0,a0,2
 ad4:	05009c63          	bne	ra,a6,b2c <main+0x114>
 ad8:	0187a283          	lw	t0,24(a5)
 adc:	01872383          	lw	t2,24(a4)
 ae0:	01c7ae83          	lw	t4,28(a5)
 ae4:	01c72f03          	lw	t5,28(a4)
 ae8:	000e8f9b          	sext.w	t6,t4
 aec:	04539663          	bne	t2,t0,b38 <main+0x120>
 af0:	0025051b          	addiw	a0,a0,2
 af4:	03ef9c63          	bne	t6,t5,b2c <main+0x114>
 af8:	0207a583          	lw	a1,32(a5)
 afc:	02072603          	lw	a2,32(a4)
 b00:	0247a783          	lw	a5,36(a5)
 b04:	02472703          	lw	a4,36(a4)
 b08:	0007869b          	sext.w	a3,a5
 b0c:	02b61663          	bne	a2,a1,b38 <main+0x120>
 b10:	0025051b          	addiw	a0,a0,2
 b14:	00e69c63          	bne	a3,a4,b2c <main+0x114>
 b18:	02030793          	addi	a5,t1,32
 b1c:	02088713          	addi	a4,a7,32
 b20:	f5c518e3          	bne	a0,t3,a70 <main+0x58>
 b24:	00bc6537          	lui	a0,0xbc6
 b28:	14e50513          	addi	a0,a0,334 # bc614e <STACK+0xbbd16e>
 b2c:	7d813083          	ld	ra,2008(sp)
 b30:	7e010113          	addi	sp,sp,2016
 b34:	00008067          	ret
 b38:	0015051b          	addiw	a0,a0,1
 b3c:	ff1ff06f          	j	b2c <main+0x114>

0000000000000b40 <end>:
 b40:	00000013          	nop
 b44:	00000013          	nop
 b48:	00000013          	nop
 b4c:	00000013          	nop
 b50:	00000013          	nop
 b54:	00000013          	nop

0000000000000b58 <_last>:
 b58:	fe9ff06f          	j	b40 <end>
