
st-matmul-32-loops-unrolled.riscv:     file format elf64-littleriscv


Disassembly of section .text:

0000000000000000 <_start>:
   0:	00000093          	li	ra,0
   4:	00000113          	li	sp,0
   8:	00000193          	li	gp,0
   c:	00000213          	li	tp,0
  10:	00000293          	li	t0,0
  14:	00000313          	li	t1,0
  18:	00000393          	li	t2,0
  1c:	00000413          	li	s0,0
  20:	00000493          	li	s1,0
  24:	00000513          	li	a0,0
  28:	00000593          	li	a1,0
  2c:	00000613          	li	a2,0
  30:	00000693          	li	a3,0
  34:	00000713          	li	a4,0
  38:	00000793          	li	a5,0
  3c:	00000813          	li	a6,0
  40:	00000893          	li	a7,0
  44:	00000913          	li	s2,0
  48:	00000993          	li	s3,0
  4c:	00000a13          	li	s4,0
  50:	00000a93          	li	s5,0
  54:	00000b13          	li	s6,0
  58:	00000b93          	li	s7,0
  5c:	00000c13          	li	s8,0
  60:	00000c93          	li	s9,0
  64:	00000d13          	li	s10,0
  68:	00000d93          	li	s11,0
  6c:	00000e13          	li	t3,0
  70:	00000e93          	li	t4,0
  74:	00000f13          	li	t5,0
  78:	00000f93          	li	t6,0
  7c:	00006117          	auipc	sp,0x6
  80:	ce410113          	addi	sp,sp,-796 # 5d60 <results_data.0>
  84:	151000ef          	jal	ra,9d4 <main>
  88:	2b50006f          	j	b3c <end>

000000000000008c <matmul>:
  8c:	38050063          	beqz	a0,40c <matmul+0x380>
  90:	00068f93          	mv	t6,a3
  94:	00251693          	slli	a3,a0,0x2
  98:	00050f13          	mv	t5,a0
  9c:	00060e93          	mv	t4,a2
  a0:	00d583b3          	add	t2,a1,a3
  a4:	00000293          	li	t0,0
  a8:	00038893          	mv	a7,t2
  ac:	000f8313          	mv	t1,t6
  b0:	00000e13          	li	t3,0
  b4:	ffc68613          	addi	a2,a3,-4
  b8:	00265513          	srli	a0,a2,0x2
  bc:	00150593          	addi	a1,a0,1
  c0:	0075f813          	andi	a6,a1,7
  c4:	40d887b3          	sub	a5,a7,a3
  c8:	000e8713          	mv	a4,t4
  cc:	00000593          	li	a1,0
  d0:	0e080063          	beqz	a6,1b0 <matmul+0x124>
  d4:	00100613          	li	a2,1
  d8:	0ac80c63          	beq	a6,a2,190 <matmul+0x104>
  dc:	00200513          	li	a0,2
  e0:	08a80c63          	beq	a6,a0,178 <matmul+0xec>
  e4:	00300613          	li	a2,3
  e8:	06c80c63          	beq	a6,a2,160 <matmul+0xd4>
  ec:	00400513          	li	a0,4
  f0:	04a80c63          	beq	a6,a0,148 <matmul+0xbc>
  f4:	00500613          	li	a2,5
  f8:	02c80c63          	beq	a6,a2,130 <matmul+0xa4>
  fc:	00600513          	li	a0,6
 100:	00a80c63          	beq	a6,a0,118 <matmul+0x8c>
 104:	0007a803          	lw	a6,0(a5)
 108:	000ea583          	lw	a1,0(t4)
 10c:	00478793          	addi	a5,a5,4
 110:	00de8733          	add	a4,t4,a3
 114:	030585bb          	mulw	a1,a1,a6
 118:	0007a503          	lw	a0,0(a5)
 11c:	00072603          	lw	a2,0(a4)
 120:	00478793          	addi	a5,a5,4
 124:	00d70733          	add	a4,a4,a3
 128:	02a6083b          	mulw	a6,a2,a0
 12c:	00b805bb          	addw	a1,a6,a1
 130:	0007a503          	lw	a0,0(a5)
 134:	00072603          	lw	a2,0(a4)
 138:	00478793          	addi	a5,a5,4
 13c:	00d70733          	add	a4,a4,a3
 140:	02a6083b          	mulw	a6,a2,a0
 144:	00b805bb          	addw	a1,a6,a1
 148:	0007a503          	lw	a0,0(a5)
 14c:	00072603          	lw	a2,0(a4)
 150:	00478793          	addi	a5,a5,4
 154:	00d70733          	add	a4,a4,a3
 158:	02a6083b          	mulw	a6,a2,a0
 15c:	00b805bb          	addw	a1,a6,a1
 160:	0007a503          	lw	a0,0(a5)
 164:	00072603          	lw	a2,0(a4)
 168:	00478793          	addi	a5,a5,4
 16c:	00d70733          	add	a4,a4,a3
 170:	02a6083b          	mulw	a6,a2,a0
 174:	00b805bb          	addw	a1,a6,a1
 178:	0007a503          	lw	a0,0(a5)
 17c:	00072603          	lw	a2,0(a4)
 180:	00478793          	addi	a5,a5,4
 184:	00d70733          	add	a4,a4,a3
 188:	02a6083b          	mulw	a6,a2,a0
 18c:	00b805bb          	addw	a1,a6,a1
 190:	0007a503          	lw	a0,0(a5)
 194:	00072603          	lw	a2,0(a4)
 198:	00478793          	addi	a5,a5,4
 19c:	00d70733          	add	a4,a4,a3
 1a0:	02a6083b          	mulw	a6,a2,a0
 1a4:	00b805bb          	addw	a1,a6,a1
 1a8:	00058513          	mv	a0,a1
 1ac:	22f88663          	beq	a7,a5,3d8 <matmul+0x34c>
 1b0:	fa010113          	addi	sp,sp,-96
 1b4:	04813c23          	sd	s0,88(sp)
 1b8:	04913823          	sd	s1,80(sp)
 1bc:	05213423          	sd	s2,72(sp)
 1c0:	05313023          	sd	s3,64(sp)
 1c4:	03413c23          	sd	s4,56(sp)
 1c8:	03513823          	sd	s5,48(sp)
 1cc:	03613423          	sd	s6,40(sp)
 1d0:	03713023          	sd	s7,32(sp)
 1d4:	01813c23          	sd	s8,24(sp)
 1d8:	01913823          	sd	s9,16(sp)
 1dc:	01a13423          	sd	s10,8(sp)
 1e0:	00d704b3          	add	s1,a4,a3
 1e4:	0007a403          	lw	s0,0(a5)
 1e8:	00072c83          	lw	s9,0(a4)
 1ec:	0047a983          	lw	s3,4(a5)
 1f0:	0004aa83          	lw	s5,0(s1)
 1f4:	028c8cbb          	mulw	s9,s9,s0
 1f8:	00d48933          	add	s2,s1,a3
 1fc:	00d90a33          	add	s4,s2,a3
 200:	0087ad03          	lw	s10,8(a5)
 204:	00092903          	lw	s2,0(s2)
 208:	00da0b33          	add	s6,s4,a3
 20c:	000a2483          	lw	s1,0(s4)
 210:	00c7ac03          	lw	s8,12(a5)
 214:	00db0733          	add	a4,s6,a3
 218:	0107ab83          	lw	s7,16(a5)
 21c:	033a8abb          	mulw	s5,s5,s3
 220:	000b2403          	lw	s0,0(s6)
 224:	00072803          	lw	a6,0(a4)
 228:	0147ab03          	lw	s6,20(a5)
 22c:	00d70533          	add	a0,a4,a3
 230:	0187aa03          	lw	s4,24(a5)
 234:	00d50733          	add	a4,a0,a3
 238:	00052503          	lw	a0,0(a0)
 23c:	01c7a983          	lw	s3,28(a5)
 240:	00072603          	lw	a2,0(a4)
 244:	03a90d3b          	mulw	s10,s2,s10
 248:	00bc85bb          	addw	a1,s9,a1
 24c:	00ba893b          	addw	s2,s5,a1
 250:	02078793          	addi	a5,a5,32
 254:	00d70733          	add	a4,a4,a3
 258:	03848c3b          	mulw	s8,s1,s8
 25c:	012d0cbb          	addw	s9,s10,s2
 260:	037404bb          	mulw	s1,s0,s7
 264:	019c0bbb          	addw	s7,s8,s9
 268:	03680b3b          	mulw	s6,a6,s6
 26c:	0174843b          	addw	s0,s1,s7
 270:	0345083b          	mulw	a6,a0,s4
 274:	008b0a3b          	addw	s4,s6,s0
 278:	03360abb          	mulw	s5,a2,s3
 27c:	0148053b          	addw	a0,a6,s4
 280:	00aa85bb          	addw	a1,s5,a0
 284:	00058993          	mv	s3,a1
 288:	f4f89ce3          	bne	a7,a5,1e0 <matmul+0x154>
 28c:	01332023          	sw	s3,0(t1)
 290:	001e0793          	addi	a5,t3,1
 294:	00d30333          	add	t1,t1,a3
 298:	00d888b3          	add	a7,a7,a3
 29c:	10ff0c63          	beq	t5,a5,3b4 <matmul+0x328>
 2a0:	00078e13          	mv	t3,a5
 2a4:	ffc68713          	addi	a4,a3,-4
 2a8:	00275993          	srli	s3,a4,0x2
 2ac:	00198613          	addi	a2,s3,1
 2b0:	00767d13          	andi	s10,a2,7
 2b4:	40d887b3          	sub	a5,a7,a3
 2b8:	000e8713          	mv	a4,t4
 2bc:	00000593          	li	a1,0
 2c0:	f20d00e3          	beqz	s10,1e0 <matmul+0x154>
 2c4:	00100913          	li	s2,1
 2c8:	0b2d0c63          	beq	s10,s2,380 <matmul+0x2f4>
 2cc:	00200c13          	li	s8,2
 2d0:	098d0c63          	beq	s10,s8,368 <matmul+0x2dc>
 2d4:	00300c93          	li	s9,3
 2d8:	079d0c63          	beq	s10,s9,350 <matmul+0x2c4>
 2dc:	00400493          	li	s1,4
 2e0:	049d0c63          	beq	s10,s1,338 <matmul+0x2ac>
 2e4:	00500b93          	li	s7,5
 2e8:	037d0c63          	beq	s10,s7,320 <matmul+0x294>
 2ec:	00600b13          	li	s6,6
 2f0:	016d0c63          	beq	s10,s6,308 <matmul+0x27c>
 2f4:	0007a403          	lw	s0,0(a5)
 2f8:	000ea583          	lw	a1,0(t4)
 2fc:	00478793          	addi	a5,a5,4
 300:	00de8733          	add	a4,t4,a3
 304:	028585bb          	mulw	a1,a1,s0
 308:	0007a803          	lw	a6,0(a5)
 30c:	00072a03          	lw	s4,0(a4)
 310:	00478793          	addi	a5,a5,4
 314:	00d70733          	add	a4,a4,a3
 318:	030a0abb          	mulw	s5,s4,a6
 31c:	00ba85bb          	addw	a1,s5,a1
 320:	0007a503          	lw	a0,0(a5)
 324:	00072983          	lw	s3,0(a4)
 328:	00478793          	addi	a5,a5,4
 32c:	00d70733          	add	a4,a4,a3
 330:	02a9863b          	mulw	a2,s3,a0
 334:	00b605bb          	addw	a1,a2,a1
 338:	0007ad03          	lw	s10,0(a5)
 33c:	00072903          	lw	s2,0(a4)
 340:	00478793          	addi	a5,a5,4
 344:	00d70733          	add	a4,a4,a3
 348:	03a90c3b          	mulw	s8,s2,s10
 34c:	00bc05bb          	addw	a1,s8,a1
 350:	0007ac83          	lw	s9,0(a5)
 354:	00072483          	lw	s1,0(a4)
 358:	00478793          	addi	a5,a5,4
 35c:	00d70733          	add	a4,a4,a3
 360:	03948bbb          	mulw	s7,s1,s9
 364:	00bb85bb          	addw	a1,s7,a1
 368:	0007ab03          	lw	s6,0(a5)
 36c:	00072403          	lw	s0,0(a4)
 370:	00478793          	addi	a5,a5,4
 374:	00d70733          	add	a4,a4,a3
 378:	0364083b          	mulw	a6,s0,s6
 37c:	00b805bb          	addw	a1,a6,a1
 380:	0007aa03          	lw	s4,0(a5)
 384:	00072a83          	lw	s5,0(a4)
 388:	00478793          	addi	a5,a5,4
 38c:	00d70733          	add	a4,a4,a3
 390:	034a853b          	mulw	a0,s5,s4
 394:	00b505bb          	addw	a1,a0,a1
 398:	00058993          	mv	s3,a1
 39c:	e4f892e3          	bne	a7,a5,1e0 <matmul+0x154>
 3a0:	01332023          	sw	s3,0(t1)
 3a4:	001e0793          	addi	a5,t3,1
 3a8:	00d30333          	add	t1,t1,a3
 3ac:	00d888b3          	add	a7,a7,a3
 3b0:	eeff18e3          	bne	t5,a5,2a0 <matmul+0x214>
 3b4:	00128313          	addi	t1,t0,1
 3b8:	004e8e93          	addi	t4,t4,4
 3bc:	004f8f93          	addi	t6,t6,4
 3c0:	045e0863          	beq	t3,t0,410 <matmul+0x384>
 3c4:	00030293          	mv	t0,t1
 3c8:	00038893          	mv	a7,t2
 3cc:	000f8313          	mv	t1,t6
 3d0:	00000e13          	li	t3,0
 3d4:	ed1ff06f          	j	2a4 <matmul+0x218>
 3d8:	00a32023          	sw	a0,0(t1)
 3dc:	001e0613          	addi	a2,t3,1
 3e0:	00d30333          	add	t1,t1,a3
 3e4:	00d888b3          	add	a7,a7,a3
 3e8:	00cf0663          	beq	t5,a2,3f4 <matmul+0x368>
 3ec:	00060e13          	mv	t3,a2
 3f0:	cc5ff06f          	j	b4 <matmul+0x28>
 3f4:	00128893          	addi	a7,t0,1
 3f8:	004e8e93          	addi	t4,t4,4
 3fc:	004f8f93          	addi	t6,t6,4
 400:	005e0663          	beq	t3,t0,40c <matmul+0x380>
 404:	00088293          	mv	t0,a7
 408:	ca1ff06f          	j	a8 <matmul+0x1c>
 40c:	00008067          	ret
 410:	05813403          	ld	s0,88(sp)
 414:	05013483          	ld	s1,80(sp)
 418:	04813903          	ld	s2,72(sp)
 41c:	04013983          	ld	s3,64(sp)
 420:	03813a03          	ld	s4,56(sp)
 424:	03013a83          	ld	s5,48(sp)
 428:	02813b03          	ld	s6,40(sp)
 42c:	02013b83          	ld	s7,32(sp)
 430:	01813c03          	ld	s8,24(sp)
 434:	01013c83          	ld	s9,16(sp)
 438:	00813d03          	ld	s10,8(sp)
 43c:	06010113          	addi	sp,sp,96
 440:	00008067          	ret

0000000000000444 <setStats>:
 444:	00008067          	ret

0000000000000448 <memcpy>:
 448:	00b567b3          	or	a5,a0,a1
 44c:	00c7e2b3          	or	t0,a5,a2
 450:	0072f313          	andi	t1,t0,7
 454:	00c506b3          	add	a3,a0,a2
 458:	10030863          	beqz	t1,568 <memcpy+0x120>
 45c:	00c58633          	add	a2,a1,a2
 460:	00050793          	mv	a5,a0
 464:	10d57063          	bgeu	a0,a3,564 <memcpy+0x11c>
 468:	40b60733          	sub	a4,a2,a1
 46c:	00777393          	andi	t2,a4,7
 470:	0a038463          	beqz	t2,518 <memcpy+0xd0>
 474:	00100813          	li	a6,1
 478:	09038663          	beq	t2,a6,504 <memcpy+0xbc>
 47c:	00200893          	li	a7,2
 480:	07138a63          	beq	t2,a7,4f4 <memcpy+0xac>
 484:	00300e13          	li	t3,3
 488:	05c38e63          	beq	t2,t3,4e4 <memcpy+0x9c>
 48c:	00400e93          	li	t4,4
 490:	05d38263          	beq	t2,t4,4d4 <memcpy+0x8c>
 494:	00500f13          	li	t5,5
 498:	03e38663          	beq	t2,t5,4c4 <memcpy+0x7c>
 49c:	00600f93          	li	t6,6
 4a0:	01f38a63          	beq	t2,t6,4b4 <memcpy+0x6c>
 4a4:	0005c283          	lbu	t0,0(a1)
 4a8:	00150793          	addi	a5,a0,1
 4ac:	00158593          	addi	a1,a1,1
 4b0:	00550023          	sb	t0,0(a0)
 4b4:	0005c303          	lbu	t1,0(a1)
 4b8:	00178793          	addi	a5,a5,1
 4bc:	00158593          	addi	a1,a1,1
 4c0:	fe678fa3          	sb	t1,-1(a5)
 4c4:	0005c683          	lbu	a3,0(a1)
 4c8:	00178793          	addi	a5,a5,1
 4cc:	00158593          	addi	a1,a1,1
 4d0:	fed78fa3          	sb	a3,-1(a5)
 4d4:	0005c703          	lbu	a4,0(a1)
 4d8:	00178793          	addi	a5,a5,1
 4dc:	00158593          	addi	a1,a1,1
 4e0:	fee78fa3          	sb	a4,-1(a5)
 4e4:	0005c383          	lbu	t2,0(a1)
 4e8:	00178793          	addi	a5,a5,1
 4ec:	00158593          	addi	a1,a1,1
 4f0:	fe778fa3          	sb	t2,-1(a5)
 4f4:	0005c803          	lbu	a6,0(a1)
 4f8:	00178793          	addi	a5,a5,1
 4fc:	00158593          	addi	a1,a1,1
 500:	ff078fa3          	sb	a6,-1(a5)
 504:	0005c883          	lbu	a7,0(a1)
 508:	00158593          	addi	a1,a1,1
 50c:	00178793          	addi	a5,a5,1
 510:	ff178fa3          	sb	a7,-1(a5)
 514:	16c58c63          	beq	a1,a2,68c <memcpy+0x244>
 518:	0005ce03          	lbu	t3,0(a1)
 51c:	00858593          	addi	a1,a1,8
 520:	00878793          	addi	a5,a5,8
 524:	ffc78c23          	sb	t3,-8(a5)
 528:	ff95ce83          	lbu	t4,-7(a1)
 52c:	ffd78ca3          	sb	t4,-7(a5)
 530:	ffa5cf03          	lbu	t5,-6(a1)
 534:	ffe78d23          	sb	t5,-6(a5)
 538:	ffb5cf83          	lbu	t6,-5(a1)
 53c:	fff78da3          	sb	t6,-5(a5)
 540:	ffc5c283          	lbu	t0,-4(a1)
 544:	fe578e23          	sb	t0,-4(a5)
 548:	ffd5c303          	lbu	t1,-3(a1)
 54c:	fe678ea3          	sb	t1,-3(a5)
 550:	ffe5c683          	lbu	a3,-2(a1)
 554:	fed78f23          	sb	a3,-2(a5)
 558:	fff5c703          	lbu	a4,-1(a1)
 55c:	fee78fa3          	sb	a4,-1(a5)
 560:	fac59ce3          	bne	a1,a2,518 <memcpy+0xd0>
 564:	00008067          	ret
 568:	fed57ee3          	bgeu	a0,a3,564 <memcpy+0x11c>
 56c:	0005b603          	ld	a2,0(a1)
 570:	fff54393          	not	t2,a0
 574:	00768833          	add	a6,a3,t2
 578:	00385893          	srli	a7,a6,0x3
 57c:	00850793          	addi	a5,a0,8
 580:	fec7bc23          	sd	a2,-8(a5)
 584:	00858593          	addi	a1,a1,8
 588:	0078fe13          	andi	t3,a7,7
 58c:	10d7f463          	bgeu	a5,a3,694 <memcpy+0x24c>
 590:	080e0c63          	beqz	t3,628 <memcpy+0x1e0>
 594:	00100e93          	li	t4,1
 598:	07de0e63          	beq	t3,t4,614 <memcpy+0x1cc>
 59c:	00200f13          	li	t5,2
 5a0:	07ee0263          	beq	t3,t5,604 <memcpy+0x1bc>
 5a4:	00300f93          	li	t6,3
 5a8:	05fe0663          	beq	t3,t6,5f4 <memcpy+0x1ac>
 5ac:	00400293          	li	t0,4
 5b0:	025e0a63          	beq	t3,t0,5e4 <memcpy+0x19c>
 5b4:	00500313          	li	t1,5
 5b8:	006e0e63          	beq	t3,t1,5d4 <memcpy+0x18c>
 5bc:	00600713          	li	a4,6
 5c0:	0aee1c63          	bne	t3,a4,678 <memcpy+0x230>
 5c4:	0005b383          	ld	t2,0(a1)
 5c8:	00878793          	addi	a5,a5,8
 5cc:	00858593          	addi	a1,a1,8
 5d0:	fe77bc23          	sd	t2,-8(a5)
 5d4:	0005b803          	ld	a6,0(a1)
 5d8:	00878793          	addi	a5,a5,8
 5dc:	00858593          	addi	a1,a1,8
 5e0:	ff07bc23          	sd	a6,-8(a5)
 5e4:	0005b883          	ld	a7,0(a1)
 5e8:	00878793          	addi	a5,a5,8
 5ec:	00858593          	addi	a1,a1,8
 5f0:	ff17bc23          	sd	a7,-8(a5)
 5f4:	0005be03          	ld	t3,0(a1)
 5f8:	00878793          	addi	a5,a5,8
 5fc:	00858593          	addi	a1,a1,8
 600:	ffc7bc23          	sd	t3,-8(a5)
 604:	0005be83          	ld	t4,0(a1)
 608:	00878793          	addi	a5,a5,8
 60c:	00858593          	addi	a1,a1,8
 610:	ffd7bc23          	sd	t4,-8(a5)
 614:	0005bf03          	ld	t5,0(a1)
 618:	00878793          	addi	a5,a5,8
 61c:	00858593          	addi	a1,a1,8
 620:	ffe7bc23          	sd	t5,-8(a5)
 624:	06d7f663          	bgeu	a5,a3,690 <memcpy+0x248>
 628:	0005bf83          	ld	t6,0(a1)
 62c:	04058593          	addi	a1,a1,64
 630:	04078793          	addi	a5,a5,64
 634:	fdf7b023          	sd	t6,-64(a5)
 638:	fc85b283          	ld	t0,-56(a1)
 63c:	fc57b423          	sd	t0,-56(a5)
 640:	fd05b303          	ld	t1,-48(a1)
 644:	fc67b823          	sd	t1,-48(a5)
 648:	fd85b703          	ld	a4,-40(a1)
 64c:	fce7bc23          	sd	a4,-40(a5)
 650:	fe05b603          	ld	a2,-32(a1)
 654:	fec7b023          	sd	a2,-32(a5)
 658:	fe85b383          	ld	t2,-24(a1)
 65c:	fe77b423          	sd	t2,-24(a5)
 660:	ff05b803          	ld	a6,-16(a1)
 664:	ff07b823          	sd	a6,-16(a5)
 668:	ff85b883          	ld	a7,-8(a1)
 66c:	ff17bc23          	sd	a7,-8(a5)
 670:	fad7ece3          	bltu	a5,a3,628 <memcpy+0x1e0>
 674:	00008067          	ret
 678:	0005b603          	ld	a2,0(a1)
 67c:	00878793          	addi	a5,a5,8
 680:	00858593          	addi	a1,a1,8
 684:	fec7bc23          	sd	a2,-8(a5)
 688:	f3dff06f          	j	5c4 <memcpy+0x17c>
 68c:	00008067          	ret
 690:	00008067          	ret
 694:	00008067          	ret

0000000000000698 <memset>:
 698:	ff010113          	addi	sp,sp,-16
 69c:	00c567b3          	or	a5,a0,a2
 6a0:	00113423          	sd	ra,8(sp)
 6a4:	00813023          	sd	s0,0(sp)
 6a8:	0077f093          	andi	ra,a5,7
 6ac:	00050413          	mv	s0,a0
 6b0:	00c50733          	add	a4,a0,a2
 6b4:	02008263          	beqz	ra,6d8 <memset+0x40>
 6b8:	00e57663          	bgeu	a0,a4,6c4 <memset+0x2c>
 6bc:	0ff5f593          	zext.b	a1,a1
 6c0:	fd9ff0ef          	jal	ra,698 <memset>
 6c4:	00813083          	ld	ra,8(sp)
 6c8:	00040513          	mv	a0,s0
 6cc:	00013403          	ld	s0,0(sp)
 6d0:	01010113          	addi	sp,sp,16
 6d4:	00008067          	ret
 6d8:	0ff5f593          	zext.b	a1,a1
 6dc:	00003297          	auipc	t0,0x3
 6e0:	57c2b283          	ld	t0,1404(t0) # 3c58 <input1_data+0x1000>
 6e4:	02558333          	mul	t1,a1,t0
 6e8:	fce57ee3          	bgeu	a0,a4,6c4 <memset+0x2c>
 6ec:	fff54693          	not	a3,a0
 6f0:	00d703b3          	add	t2,a4,a3
 6f4:	0033d513          	srli	a0,t2,0x3
 6f8:	00840793          	addi	a5,s0,8
 6fc:	fe67bc23          	sd	t1,-8(a5)
 700:	00757813          	andi	a6,a0,7
 704:	fce7f0e3          	bgeu	a5,a4,6c4 <memset+0x2c>
 708:	06080463          	beqz	a6,770 <memset+0xd8>
 70c:	00100613          	li	a2,1
 710:	04c80a63          	beq	a6,a2,764 <memset+0xcc>
 714:	00200893          	li	a7,2
 718:	05180263          	beq	a6,a7,75c <memset+0xc4>
 71c:	00300e13          	li	t3,3
 720:	03c80a63          	beq	a6,t3,754 <memset+0xbc>
 724:	00400e93          	li	t4,4
 728:	03d80263          	beq	a6,t4,74c <memset+0xb4>
 72c:	00500f13          	li	t5,5
 730:	01e80a63          	beq	a6,t5,744 <memset+0xac>
 734:	00600f93          	li	t6,6
 738:	07f81263          	bne	a6,t6,79c <memset+0x104>
 73c:	0067b023          	sd	t1,0(a5)
 740:	00878793          	addi	a5,a5,8
 744:	0067b023          	sd	t1,0(a5)
 748:	00878793          	addi	a5,a5,8
 74c:	0067b023          	sd	t1,0(a5)
 750:	00878793          	addi	a5,a5,8
 754:	0067b023          	sd	t1,0(a5)
 758:	00878793          	addi	a5,a5,8
 75c:	0067b023          	sd	t1,0(a5)
 760:	00878793          	addi	a5,a5,8
 764:	00878793          	addi	a5,a5,8
 768:	fe67bc23          	sd	t1,-8(a5)
 76c:	f4e7fce3          	bgeu	a5,a4,6c4 <memset+0x2c>
 770:	0067b023          	sd	t1,0(a5)
 774:	0067b423          	sd	t1,8(a5)
 778:	0067b823          	sd	t1,16(a5)
 77c:	0067bc23          	sd	t1,24(a5)
 780:	0267b023          	sd	t1,32(a5)
 784:	0267b423          	sd	t1,40(a5)
 788:	0267b823          	sd	t1,48(a5)
 78c:	0267bc23          	sd	t1,56(a5)
 790:	04078793          	addi	a5,a5,64
 794:	fce7eee3          	bltu	a5,a4,770 <memset+0xd8>
 798:	f2dff06f          	j	6c4 <memset+0x2c>
 79c:	0067b023          	sd	t1,0(a5)
 7a0:	00878793          	addi	a5,a5,8
 7a4:	f99ff06f          	j	73c <memset+0xa4>

00000000000007a8 <strlen>:
 7a8:	00054783          	lbu	a5,0(a0)
 7ac:	00078e63          	beqz	a5,7c8 <strlen+0x20>
 7b0:	00050293          	mv	t0,a0
 7b4:	0012c703          	lbu	a4,1(t0)
 7b8:	00128293          	addi	t0,t0,1
 7bc:	fe071ce3          	bnez	a4,7b4 <strlen+0xc>
 7c0:	40a28533          	sub	a0,t0,a0
 7c4:	00008067          	ret
 7c8:	00000513          	li	a0,0
 7cc:	00008067          	ret

00000000000007d0 <strnlen>:
 7d0:	00b506b3          	add	a3,a0,a1
 7d4:	00050793          	mv	a5,a0
 7d8:	10058a63          	beqz	a1,8ec <strnlen+0x11c>
 7dc:	40a68733          	sub	a4,a3,a0
 7e0:	00777293          	andi	t0,a4,7
 7e4:	08028063          	beqz	t0,864 <strnlen+0x94>
 7e8:	00100613          	li	a2,1
 7ec:	06c28463          	beq	t0,a2,854 <strnlen+0x84>
 7f0:	00200313          	li	t1,2
 7f4:	04628a63          	beq	t0,t1,848 <strnlen+0x78>
 7f8:	00300393          	li	t2,3
 7fc:	04728063          	beq	t0,t2,83c <strnlen+0x6c>
 800:	00400593          	li	a1,4
 804:	02b28663          	beq	t0,a1,830 <strnlen+0x60>
 808:	00500813          	li	a6,5
 80c:	01028c63          	beq	t0,a6,824 <strnlen+0x54>
 810:	00600893          	li	a7,6
 814:	0d129463          	bne	t0,a7,8dc <strnlen+0x10c>
 818:	0007ce83          	lbu	t4,0(a5)
 81c:	0a0e8c63          	beqz	t4,8d4 <strnlen+0x104>
 820:	00178793          	addi	a5,a5,1
 824:	0007cf03          	lbu	t5,0(a5)
 828:	0a0f0663          	beqz	t5,8d4 <strnlen+0x104>
 82c:	00178793          	addi	a5,a5,1
 830:	0007cf83          	lbu	t6,0(a5)
 834:	0a0f8063          	beqz	t6,8d4 <strnlen+0x104>
 838:	00178793          	addi	a5,a5,1
 83c:	0007c703          	lbu	a4,0(a5)
 840:	08070a63          	beqz	a4,8d4 <strnlen+0x104>
 844:	00178793          	addi	a5,a5,1
 848:	0007c283          	lbu	t0,0(a5)
 84c:	08028463          	beqz	t0,8d4 <strnlen+0x104>
 850:	00178793          	addi	a5,a5,1
 854:	0007c603          	lbu	a2,0(a5)
 858:	06060e63          	beqz	a2,8d4 <strnlen+0x104>
 85c:	00178793          	addi	a5,a5,1
 860:	06f68663          	beq	a3,a5,8cc <strnlen+0xfc>
 864:	0007c303          	lbu	t1,0(a5)
 868:	06030663          	beqz	t1,8d4 <strnlen+0x104>
 86c:	0017c383          	lbu	t2,1(a5)
 870:	00178793          	addi	a5,a5,1
 874:	00078593          	mv	a1,a5
 878:	04038e63          	beqz	t2,8d4 <strnlen+0x104>
 87c:	0017c803          	lbu	a6,1(a5)
 880:	00178793          	addi	a5,a5,1
 884:	04080863          	beqz	a6,8d4 <strnlen+0x104>
 888:	0025c883          	lbu	a7,2(a1)
 88c:	00258793          	addi	a5,a1,2
 890:	04088263          	beqz	a7,8d4 <strnlen+0x104>
 894:	0035ce03          	lbu	t3,3(a1)
 898:	00358793          	addi	a5,a1,3
 89c:	020e0c63          	beqz	t3,8d4 <strnlen+0x104>
 8a0:	0045ce83          	lbu	t4,4(a1)
 8a4:	00458793          	addi	a5,a1,4
 8a8:	020e8663          	beqz	t4,8d4 <strnlen+0x104>
 8ac:	0055cf03          	lbu	t5,5(a1)
 8b0:	00558793          	addi	a5,a1,5
 8b4:	020f0063          	beqz	t5,8d4 <strnlen+0x104>
 8b8:	0065cf83          	lbu	t6,6(a1)
 8bc:	00658793          	addi	a5,a1,6
 8c0:	000f8a63          	beqz	t6,8d4 <strnlen+0x104>
 8c4:	00758793          	addi	a5,a1,7
 8c8:	f8f69ee3          	bne	a3,a5,864 <strnlen+0x94>
 8cc:	40a68533          	sub	a0,a3,a0
 8d0:	00008067          	ret
 8d4:	40a78533          	sub	a0,a5,a0
 8d8:	00008067          	ret
 8dc:	00054e03          	lbu	t3,0(a0)
 8e0:	fe0e0ae3          	beqz	t3,8d4 <strnlen+0x104>
 8e4:	00150793          	addi	a5,a0,1
 8e8:	f31ff06f          	j	818 <strnlen+0x48>
 8ec:	00000513          	li	a0,0
 8f0:	00008067          	ret

00000000000008f4 <strcmp>:
 8f4:	00054783          	lbu	a5,0(a0)
 8f8:	00158593          	addi	a1,a1,1
 8fc:	00150513          	addi	a0,a0,1
 900:	fff5c703          	lbu	a4,-1(a1)
 904:	00078a63          	beqz	a5,918 <strcmp+0x24>
 908:	fee786e3          	beq	a5,a4,8f4 <strcmp>
 90c:	0007851b          	sext.w	a0,a5
 910:	40e5053b          	subw	a0,a0,a4
 914:	00008067          	ret
 918:	00000513          	li	a0,0
 91c:	ff5ff06f          	j	910 <strcmp+0x1c>

0000000000000920 <strcpy>:
 920:	00050793          	mv	a5,a0
 924:	0005c703          	lbu	a4,0(a1)
 928:	00178793          	addi	a5,a5,1
 92c:	00158593          	addi	a1,a1,1
 930:	fee78fa3          	sb	a4,-1(a5)
 934:	fe0718e3          	bnez	a4,924 <strcpy+0x4>
 938:	00008067          	ret

000000000000093c <atol>:
 93c:	00054703          	lbu	a4,0(a0)
 940:	02000693          	li	a3,32
 944:	00050793          	mv	a5,a0
 948:	00d71863          	bne	a4,a3,958 <atol+0x1c>
 94c:	0017c703          	lbu	a4,1(a5)
 950:	00178793          	addi	a5,a5,1
 954:	fed70ce3          	beq	a4,a3,94c <atol+0x10>
 958:	02d00293          	li	t0,45
 95c:	06570063          	beq	a4,t0,9bc <atol+0x80>
 960:	02b00313          	li	t1,43
 964:	04670063          	beq	a4,t1,9a4 <atol+0x68>
 968:	0007c383          	lbu	t2,0(a5)
 96c:	00000593          	li	a1,0
 970:	04038263          	beqz	t2,9b4 <atol+0x78>
 974:	00000513          	li	a0,0
 978:	00178793          	addi	a5,a5,1
 97c:	fd03861b          	addiw	a2,t2,-48
 980:	00251813          	slli	a6,a0,0x2
 984:	0007c383          	lbu	t2,0(a5)
 988:	00a80533          	add	a0,a6,a0
 98c:	00151893          	slli	a7,a0,0x1
 990:	01160533          	add	a0,a2,a7
 994:	fe0392e3          	bnez	t2,978 <atol+0x3c>
 998:	02058063          	beqz	a1,9b8 <atol+0x7c>
 99c:	40a00533          	neg	a0,a0
 9a0:	00008067          	ret
 9a4:	0017c383          	lbu	t2,1(a5)
 9a8:	00000593          	li	a1,0
 9ac:	00178793          	addi	a5,a5,1
 9b0:	fc0392e3          	bnez	t2,974 <atol+0x38>
 9b4:	00000513          	li	a0,0
 9b8:	00008067          	ret
 9bc:	0017c383          	lbu	t2,1(a5)
 9c0:	00100593          	li	a1,1
 9c4:	00178793          	addi	a5,a5,1
 9c8:	fa0396e3          	bnez	t2,974 <atol+0x38>
 9cc:	00000513          	li	a0,0
 9d0:	fe9ff06f          	j	9b8 <atol+0x7c>

00000000000009d4 <main>:
 9d4:	ff010113          	addi	sp,sp,-16
 9d8:	00005697          	auipc	a3,0x5
 9dc:	38868693          	addi	a3,a3,904 # 5d60 <results_data.0>
 9e0:	00001617          	auipc	a2,0x1
 9e4:	27860613          	addi	a2,a2,632 # 1c58 <input2_data>
 9e8:	02000513          	li	a0,32
 9ec:	00002597          	auipc	a1,0x2
 9f0:	26c58593          	addi	a1,a1,620 # 2c58 <input1_data>
 9f4:	00113423          	sd	ra,8(sp)
 9f8:	e94ff0ef          	jal	ra,8c <matmul>
 9fc:	00000797          	auipc	a5,0x0
 a00:	25c78793          	addi	a5,a5,604 # c58 <verify_data>
 a04:	0007a683          	lw	a3,0(a5)
 a08:	00005717          	auipc	a4,0x5
 a0c:	35872703          	lw	a4,856(a4) # 5d60 <results_data.0>
 a10:	00005617          	auipc	a2,0x5
 a14:	35462603          	lw	a2,852(a2) # 5d64 <results_data.0+0x4>
 a18:	0047a283          	lw	t0,4(a5)
 a1c:	00000513          	li	a0,0
 a20:	10e69a63          	bne	a3,a4,b34 <main+0x160>
 a24:	00200513          	li	a0,2
 a28:	10561063          	bne	a2,t0,b28 <main+0x154>
 a2c:	00000097          	auipc	ra,0x0
 a30:	23408093          	addi	ra,ra,564 # c60 <verify_data+0x8>
 a34:	0000a303          	lw	t1,0(ra)
 a38:	00005397          	auipc	t2,0x5
 a3c:	3303a383          	lw	t2,816(t2) # 5d68 <results_data.0+0x8>
 a40:	00005597          	auipc	a1,0x5
 a44:	32c5a583          	lw	a1,812(a1) # 5d6c <results_data.0+0xc>
 a48:	0040a803          	lw	a6,4(ra)
 a4c:	0e731463          	bne	t1,t2,b34 <main+0x160>
 a50:	00400513          	li	a0,4
 a54:	0d059a63          	bne	a1,a6,b28 <main+0x154>
 a58:	40000e13          	li	t3,1024
 a5c:	00005717          	auipc	a4,0x5
 a60:	31470713          	addi	a4,a4,788 # 5d70 <results_data.0+0x10>
 a64:	00000797          	auipc	a5,0x0
 a68:	20478793          	addi	a5,a5,516 # c68 <verify_data+0x10>
 a6c:	00072883          	lw	a7,0(a4)
 a70:	0007ae83          	lw	t4,0(a5)
 a74:	00472f03          	lw	t5,4(a4)
 a78:	0047af83          	lw	t6,4(a5)
 a7c:	000f069b          	sext.w	a3,t5
 a80:	0b1e9a63          	bne	t4,a7,b34 <main+0x160>
 a84:	0025051b          	addiw	a0,a0,2
 a88:	0bf69063          	bne	a3,t6,b28 <main+0x154>
 a8c:	00872603          	lw	a2,8(a4)
 a90:	0087a283          	lw	t0,8(a5)
 a94:	00c72083          	lw	ra,12(a4)
 a98:	00c7a383          	lw	t2,12(a5)
 a9c:	00870313          	addi	t1,a4,8
 aa0:	00878893          	addi	a7,a5,8
 aa4:	0000859b          	sext.w	a1,ra
 aa8:	08c29663          	bne	t0,a2,b34 <main+0x160>
 aac:	0025051b          	addiw	a0,a0,2
 ab0:	06759c63          	bne	a1,t2,b28 <main+0x154>
 ab4:	01072e83          	lw	t4,16(a4)
 ab8:	0107af03          	lw	t5,16(a5)
 abc:	01472f83          	lw	t6,20(a4)
 ac0:	0147a803          	lw	a6,20(a5)
 ac4:	000f869b          	sext.w	a3,t6
 ac8:	07df1663          	bne	t5,t4,b34 <main+0x160>
 acc:	0025051b          	addiw	a0,a0,2
 ad0:	05069c63          	bne	a3,a6,b28 <main+0x154>
 ad4:	01872603          	lw	a2,24(a4)
 ad8:	0187a283          	lw	t0,24(a5)
 adc:	01c72083          	lw	ra,28(a4)
 ae0:	01c7a383          	lw	t2,28(a5)
 ae4:	0000859b          	sext.w	a1,ra
 ae8:	04c29663          	bne	t0,a2,b34 <main+0x160>
 aec:	0025051b          	addiw	a0,a0,2
 af0:	02759c63          	bne	a1,t2,b28 <main+0x154>
 af4:	02072e83          	lw	t4,32(a4)
 af8:	0207af03          	lw	t5,32(a5)
 afc:	02472703          	lw	a4,36(a4)
 b00:	0247a783          	lw	a5,36(a5)
 b04:	00070f9b          	sext.w	t6,a4
 b08:	03df1663          	bne	t5,t4,b34 <main+0x160>
 b0c:	0025051b          	addiw	a0,a0,2
 b10:	00ff9c63          	bne	t6,a5,b28 <main+0x154>
 b14:	02030713          	addi	a4,t1,32
 b18:	02088793          	addi	a5,a7,32
 b1c:	f5c518e3          	bne	a0,t3,a6c <main+0x98>
 b20:	00bc6537          	lui	a0,0xbc6
 b24:	14e50513          	addi	a0,a0,334 # bc614e <results_data.0+0xbc03ee>
 b28:	00813083          	ld	ra,8(sp)
 b2c:	01010113          	addi	sp,sp,16
 b30:	00008067          	ret
 b34:	0015051b          	addiw	a0,a0,1
 b38:	ff1ff06f          	j	b28 <main+0x154>

0000000000000b3c <end>:
 b3c:	00000013          	nop
 b40:	00000013          	nop
 b44:	00000013          	nop
 b48:	00000013          	nop
 b4c:	00000013          	nop
 b50:	00000013          	nop

0000000000000b54 <_last>:
 b54:	fe9ff06f          	j	b3c <end>
