
towers-loops-unrolled.riscv:     file format elf64-littleriscv


Disassembly of section .text:

0000000000000000 <_start>:
       0:	00000093          	li	ra,0
       4:	00000113          	li	sp,0
       8:	00000193          	li	gp,0
       c:	00000213          	li	tp,0
      10:	00000293          	li	t0,0
      14:	00000313          	li	t1,0
      18:	00000393          	li	t2,0
      1c:	00000413          	li	s0,0
      20:	00000493          	li	s1,0
      24:	00000513          	li	a0,0
      28:	00000593          	li	a1,0
      2c:	00000613          	li	a2,0
      30:	00000693          	li	a3,0
      34:	00000713          	li	a4,0
      38:	00000793          	li	a5,0
      3c:	00000813          	li	a6,0
      40:	00000893          	li	a7,0
      44:	00000913          	li	s2,0
      48:	00000993          	li	s3,0
      4c:	00000a13          	li	s4,0
      50:	00000a93          	li	s5,0
      54:	00000b13          	li	s6,0
      58:	00000b93          	li	s7,0
      5c:	00000c13          	li	s8,0
      60:	00000c93          	li	s9,0
      64:	00000d13          	li	s10,0
      68:	00000d93          	li	s11,0
      6c:	00000e13          	li	t3,0
      70:	00000e93          	li	t4,0
      74:	00000f13          	li	t5,0
      78:	00000f93          	li	t6,0
      7c:	00004117          	auipc	sp,0x4
      80:	86c10113          	addi	sp,sp,-1940 # 38e8 <g_nodeFreeList>
      84:	530010ef          	jal	ra,15b4 <main>
      88:	63c0106f          	j	16c4 <end>

000000000000008c <list_getSize>:
      8c:	00052503          	lw	a0,0(a0)
      90:	00008067          	ret

0000000000000094 <list_init>:
      94:	00052023          	sw	zero,0(a0)
      98:	00053423          	sd	zero,8(a0)
      9c:	00008067          	ret

00000000000000a0 <list_push>:
      a0:	00004697          	auipc	a3,0x4
      a4:	84868693          	addi	a3,a3,-1976 # 38e8 <g_nodeFreeList>
      a8:	0086b783          	ld	a5,8(a3)
      ac:	00052703          	lw	a4,0(a0)
      b0:	0087b603          	ld	a2,8(a5)
      b4:	0017031b          	addiw	t1,a4,1
      b8:	00c6b423          	sd	a2,8(a3)
      bc:	00853283          	ld	t0,8(a0)
      c0:	0057b423          	sd	t0,8(a5)
      c4:	00f53423          	sd	a5,8(a0)
      c8:	00b7a023          	sw	a1,0(a5)
      cc:	00652023          	sw	t1,0(a0)
      d0:	00008067          	ret

00000000000000d4 <list_pop>:
      d4:	00853703          	ld	a4,8(a0)
      d8:	00050793          	mv	a5,a0
      dc:	00052683          	lw	a3,0(a0)
      e0:	00873583          	ld	a1,8(a4)
      e4:	00072503          	lw	a0,0(a4)
      e8:	00004617          	auipc	a2,0x4
      ec:	80060613          	addi	a2,a2,-2048 # 38e8 <g_nodeFreeList>
      f0:	00b7b423          	sd	a1,8(a5)
      f4:	00863303          	ld	t1,8(a2)
      f8:	fff6829b          	addiw	t0,a3,-1
      fc:	00673423          	sd	t1,8(a4)
     100:	00e63423          	sd	a4,8(a2)
     104:	0057a023          	sw	t0,0(a5)
     108:	00008067          	ret

000000000000010c <list_clear>:
     10c:	00052683          	lw	a3,0(a0)
     110:	1ad05e63          	blez	a3,2cc <list_clear+0x1c0>
     114:	0076f793          	andi	a5,a3,7
     118:	00003717          	auipc	a4,0x3
     11c:	7d070713          	addi	a4,a4,2000 # 38e8 <g_nodeFreeList>
     120:	0e078063          	beqz	a5,200 <list_clear+0xf4>
     124:	00100613          	li	a2,1
     128:	0ac78c63          	beq	a5,a2,1e0 <list_clear+0xd4>
     12c:	00200293          	li	t0,2
     130:	08578a63          	beq	a5,t0,1c4 <list_clear+0xb8>
     134:	00300313          	li	t1,3
     138:	06678863          	beq	a5,t1,1a8 <list_clear+0x9c>
     13c:	00400393          	li	t2,4
     140:	04778663          	beq	a5,t2,18c <list_clear+0x80>
     144:	00500593          	li	a1,5
     148:	02b78463          	beq	a5,a1,170 <list_clear+0x64>
     14c:	00600813          	li	a6,6
     150:	19079063          	bne	a5,a6,2d0 <list_clear+0x1c4>
     154:	00853f03          	ld	t5,8(a0)
     158:	fff6869b          	addiw	a3,a3,-1
     15c:	008f3f83          	ld	t6,8(t5)
     160:	01f53423          	sd	t6,8(a0)
     164:	00873783          	ld	a5,8(a4)
     168:	00ff3423          	sd	a5,8(t5)
     16c:	01e73423          	sd	t5,8(a4)
     170:	00853283          	ld	t0,8(a0)
     174:	fff6869b          	addiw	a3,a3,-1
     178:	0082b603          	ld	a2,8(t0)
     17c:	00c53423          	sd	a2,8(a0)
     180:	00873303          	ld	t1,8(a4)
     184:	0062b423          	sd	t1,8(t0)
     188:	00573423          	sd	t0,8(a4)
     18c:	00853383          	ld	t2,8(a0)
     190:	fff6869b          	addiw	a3,a3,-1
     194:	0083b583          	ld	a1,8(t2)
     198:	00b53423          	sd	a1,8(a0)
     19c:	00873803          	ld	a6,8(a4)
     1a0:	0103b423          	sd	a6,8(t2)
     1a4:	00773423          	sd	t2,8(a4)
     1a8:	00853883          	ld	a7,8(a0)
     1ac:	fff6869b          	addiw	a3,a3,-1
     1b0:	0088be03          	ld	t3,8(a7)
     1b4:	01c53423          	sd	t3,8(a0)
     1b8:	00873e83          	ld	t4,8(a4)
     1bc:	01d8b423          	sd	t4,8(a7)
     1c0:	01173423          	sd	a7,8(a4)
     1c4:	00853f03          	ld	t5,8(a0)
     1c8:	fff6869b          	addiw	a3,a3,-1
     1cc:	008f3f83          	ld	t6,8(t5)
     1d0:	01f53423          	sd	t6,8(a0)
     1d4:	00873783          	ld	a5,8(a4)
     1d8:	00ff3423          	sd	a5,8(t5)
     1dc:	01e73423          	sd	t5,8(a4)
     1e0:	00853283          	ld	t0,8(a0)
     1e4:	fff6869b          	addiw	a3,a3,-1
     1e8:	0082b603          	ld	a2,8(t0)
     1ec:	00c53423          	sd	a2,8(a0)
     1f0:	00873303          	ld	t1,8(a4)
     1f4:	0062b423          	sd	t1,8(t0)
     1f8:	00573423          	sd	t0,8(a4)
     1fc:	0c068663          	beqz	a3,2c8 <list_clear+0x1bc>
     200:	00853383          	ld	t2,8(a0)
     204:	ff86869b          	addiw	a3,a3,-8
     208:	0083b583          	ld	a1,8(t2)
     20c:	00b53423          	sd	a1,8(a0)
     210:	00873803          	ld	a6,8(a4)
     214:	0103b423          	sd	a6,8(t2)
     218:	00773423          	sd	t2,8(a4)
     21c:	00853883          	ld	a7,8(a0)
     220:	0088be03          	ld	t3,8(a7)
     224:	01c53423          	sd	t3,8(a0)
     228:	00873e83          	ld	t4,8(a4)
     22c:	01d8b423          	sd	t4,8(a7)
     230:	01173423          	sd	a7,8(a4)
     234:	00853f03          	ld	t5,8(a0)
     238:	008f3f83          	ld	t6,8(t5)
     23c:	01f53423          	sd	t6,8(a0)
     240:	00873783          	ld	a5,8(a4)
     244:	00ff3423          	sd	a5,8(t5)
     248:	01e73423          	sd	t5,8(a4)
     24c:	00853283          	ld	t0,8(a0)
     250:	0082b603          	ld	a2,8(t0)
     254:	00c53423          	sd	a2,8(a0)
     258:	00873303          	ld	t1,8(a4)
     25c:	0062b423          	sd	t1,8(t0)
     260:	00573423          	sd	t0,8(a4)
     264:	00853383          	ld	t2,8(a0)
     268:	0083b583          	ld	a1,8(t2)
     26c:	00b53423          	sd	a1,8(a0)
     270:	00873803          	ld	a6,8(a4)
     274:	0103b423          	sd	a6,8(t2)
     278:	00773423          	sd	t2,8(a4)
     27c:	00853883          	ld	a7,8(a0)
     280:	0088be03          	ld	t3,8(a7)
     284:	01c53423          	sd	t3,8(a0)
     288:	00873e83          	ld	t4,8(a4)
     28c:	01d8b423          	sd	t4,8(a7)
     290:	01173423          	sd	a7,8(a4)
     294:	00853f03          	ld	t5,8(a0)
     298:	008f3f83          	ld	t6,8(t5)
     29c:	01f53423          	sd	t6,8(a0)
     2a0:	00873783          	ld	a5,8(a4)
     2a4:	00ff3423          	sd	a5,8(t5)
     2a8:	01e73423          	sd	t5,8(a4)
     2ac:	00853283          	ld	t0,8(a0)
     2b0:	0082b603          	ld	a2,8(t0)
     2b4:	00c53423          	sd	a2,8(a0)
     2b8:	00873303          	ld	t1,8(a4)
     2bc:	0062b423          	sd	t1,8(t0)
     2c0:	00573423          	sd	t0,8(a4)
     2c4:	f2069ee3          	bnez	a3,200 <list_clear+0xf4>
     2c8:	00052023          	sw	zero,0(a0)
     2cc:	00008067          	ret
     2d0:	00853883          	ld	a7,8(a0)
     2d4:	fff6869b          	addiw	a3,a3,-1
     2d8:	0088be03          	ld	t3,8(a7)
     2dc:	01c53423          	sd	t3,8(a0)
     2e0:	00873e83          	ld	t4,8(a4)
     2e4:	01d8b423          	sd	t4,8(a7)
     2e8:	01173423          	sd	a7,8(a4)
     2ec:	e69ff06f          	j	154 <list_clear+0x48>

00000000000002f0 <towers_init>:
     2f0:	00b52023          	sw	a1,0(a0)
     2f4:	00052223          	sw	zero,4(a0)
     2f8:	00052423          	sw	zero,8(a0)
     2fc:	00053823          	sd	zero,16(a0)
     300:	00052c23          	sw	zero,24(a0)
     304:	02053023          	sd	zero,32(a0)
     308:	02052423          	sw	zero,40(a0)
     30c:	02053823          	sd	zero,48(a0)
     310:	18b05263          	blez	a1,494 <towers_init+0x1a4>
     314:	fff5861b          	addiw	a2,a1,-1
     318:	00003297          	auipc	t0,0x3
     31c:	5d028293          	addi	t0,t0,1488 # 38e8 <g_nodeFreeList>
     320:	00767313          	andi	t1,a2,7
     324:	0082b783          	ld	a5,8(t0)
     328:	0005871b          	sext.w	a4,a1
     32c:	00000693          	li	a3,0
     330:	12030063          	beqz	t1,450 <towers_init+0x160>
     334:	0087b883          	ld	a7,8(a5)
     338:	00e7a023          	sw	a4,0(a5)
     33c:	0007b423          	sd	zero,8(a5)
     340:	00100813          	li	a6,1
     344:	00078693          	mv	a3,a5
     348:	fff7071b          	addiw	a4,a4,-1
     34c:	00088793          	mv	a5,a7
     350:	11030063          	beq	t1,a6,450 <towers_init+0x160>
     354:	00200393          	li	t2,2
     358:	08730263          	beq	t1,t2,3dc <towers_init+0xec>
     35c:	00300e13          	li	t3,3
     360:	07c30263          	beq	t1,t3,3c4 <towers_init+0xd4>
     364:	00400e93          	li	t4,4
     368:	05d30263          	beq	t1,t4,3ac <towers_init+0xbc>
     36c:	00500f13          	li	t5,5
     370:	03e30263          	beq	t1,t5,394 <towers_init+0xa4>
     374:	00600f93          	li	t6,6
     378:	13f31063          	bne	t1,t6,498 <towers_init+0x1a8>
     37c:	0087b303          	ld	t1,8(a5)
     380:	00e7a023          	sw	a4,0(a5)
     384:	00d7b423          	sd	a3,8(a5)
     388:	fff7071b          	addiw	a4,a4,-1
     38c:	00078693          	mv	a3,a5
     390:	00030793          	mv	a5,t1
     394:	0087b883          	ld	a7,8(a5)
     398:	00e7a023          	sw	a4,0(a5)
     39c:	00d7b423          	sd	a3,8(a5)
     3a0:	fff7071b          	addiw	a4,a4,-1
     3a4:	00078693          	mv	a3,a5
     3a8:	00088793          	mv	a5,a7
     3ac:	0087b803          	ld	a6,8(a5)
     3b0:	00e7a023          	sw	a4,0(a5)
     3b4:	00d7b423          	sd	a3,8(a5)
     3b8:	fff7071b          	addiw	a4,a4,-1
     3bc:	00078693          	mv	a3,a5
     3c0:	00080793          	mv	a5,a6
     3c4:	0087b383          	ld	t2,8(a5)
     3c8:	00e7a023          	sw	a4,0(a5)
     3cc:	00d7b423          	sd	a3,8(a5)
     3d0:	fff7071b          	addiw	a4,a4,-1
     3d4:	00078693          	mv	a3,a5
     3d8:	00038793          	mv	a5,t2
     3dc:	0087be03          	ld	t3,8(a5)
     3e0:	00e7a023          	sw	a4,0(a5)
     3e4:	00d7b423          	sd	a3,8(a5)
     3e8:	fff7071b          	addiw	a4,a4,-1
     3ec:	00078693          	mv	a3,a5
     3f0:	000e0793          	mv	a5,t3
     3f4:	05c0006f          	j	450 <towers_init+0x160>
     3f8:	00863803          	ld	a6,8(a2)
     3fc:	00f63423          	sd	a5,8(a2)
     400:	00762023          	sw	t2,0(a2)
     404:	00883703          	ld	a4,8(a6)
     408:	00c83423          	sd	a2,8(a6)
     40c:	01e82023          	sw	t5,0(a6)
     410:	00873683          	ld	a3,8(a4)
     414:	01073423          	sd	a6,8(a4)
     418:	01d72023          	sw	t4,0(a4)
     41c:	0086b783          	ld	a5,8(a3)
     420:	00e6b423          	sd	a4,8(a3)
     424:	01c6a023          	sw	t3,0(a3)
     428:	0087b603          	ld	a2,8(a5)
     42c:	00d7b423          	sd	a3,8(a5)
     430:	0067a023          	sw	t1,0(a5)
     434:	00863683          	ld	a3,8(a2)
     438:	01162023          	sw	a7,0(a2)
     43c:	00f63423          	sd	a5,8(a2)
     440:	0086b783          	ld	a5,8(a3)
     444:	01f6a023          	sw	t6,0(a3)
     448:	00c6b423          	sd	a2,8(a3)
     44c:	ffff871b          	addiw	a4,t6,-1
     450:	fff7039b          	addiw	t2,a4,-1
     454:	fff38f1b          	addiw	t5,t2,-1
     458:	ffff0e9b          	addiw	t4,t5,-1
     45c:	fffe8e1b          	addiw	t3,t4,-1
     460:	fffe031b          	addiw	t1,t3,-1
     464:	0087b603          	ld	a2,8(a5)
     468:	fff3089b          	addiw	a7,t1,-1
     46c:	00e7a023          	sw	a4,0(a5)
     470:	00d7b423          	sd	a3,8(a5)
     474:	fff88f9b          	addiw	t6,a7,-1
     478:	f80390e3          	bnez	t2,3f8 <towers_init+0x108>
     47c:	00c2b423          	sd	a2,8(t0)
     480:	00d7b423          	sd	a3,8(a5)
     484:	00f53823          	sd	a5,16(a0)
     488:	00100293          	li	t0,1
     48c:	0057a023          	sw	t0,0(a5)
     490:	00b52423          	sw	a1,8(a0)
     494:	00008067          	ret
     498:	0088b603          	ld	a2,8(a7)
     49c:	00e8a023          	sw	a4,0(a7)
     4a0:	00d8b423          	sd	a3,8(a7)
     4a4:	fff7071b          	addiw	a4,a4,-1
     4a8:	00088693          	mv	a3,a7
     4ac:	00060793          	mv	a5,a2
     4b0:	ecdff06f          	j	37c <towers_init+0x8c>

00000000000004b4 <towers_clear>:
     4b4:	00852583          	lw	a1,8(a0)
     4b8:	14b05863          	blez	a1,608 <towers_clear+0x154>
     4bc:	fff5871b          	addiw	a4,a1,-1
     4c0:	00003817          	auipc	a6,0x3
     4c4:	42880813          	addi	a6,a6,1064 # 38e8 <g_nodeFreeList>
     4c8:	00777293          	andi	t0,a4,7
     4cc:	01053783          	ld	a5,16(a0)
     4d0:	00883603          	ld	a2,8(a6)
     4d4:	10028a63          	beqz	t0,5e8 <towers_clear+0x134>
     4d8:	0087b683          	ld	a3,8(a5)
     4dc:	00078313          	mv	t1,a5
     4e0:	00c7b423          	sd	a2,8(a5)
     4e4:	00100893          	li	a7,1
     4e8:	fff5859b          	addiw	a1,a1,-1
     4ec:	00068793          	mv	a5,a3
     4f0:	00030613          	mv	a2,t1
     4f4:	0f128a63          	beq	t0,a7,5e8 <towers_clear+0x134>
     4f8:	00200393          	li	t2,2
     4fc:	08728263          	beq	t0,t2,580 <towers_clear+0xcc>
     500:	00300e13          	li	t3,3
     504:	07c28263          	beq	t0,t3,568 <towers_clear+0xb4>
     508:	00400e93          	li	t4,4
     50c:	05d28263          	beq	t0,t4,550 <towers_clear+0x9c>
     510:	00500f13          	li	t5,5
     514:	03e28263          	beq	t0,t5,538 <towers_clear+0x84>
     518:	00600f93          	li	t6,6
     51c:	51f29c63          	bne	t0,t6,a34 <towers_clear+0x580>
     520:	0087b283          	ld	t0,8(a5)
     524:	00078693          	mv	a3,a5
     528:	00c7b423          	sd	a2,8(a5)
     52c:	fff5859b          	addiw	a1,a1,-1
     530:	00028793          	mv	a5,t0
     534:	00068613          	mv	a2,a3
     538:	0087b303          	ld	t1,8(a5)
     53c:	00078893          	mv	a7,a5
     540:	00c7b423          	sd	a2,8(a5)
     544:	fff5859b          	addiw	a1,a1,-1
     548:	00030793          	mv	a5,t1
     54c:	00088613          	mv	a2,a7
     550:	0087b383          	ld	t2,8(a5)
     554:	00078e13          	mv	t3,a5
     558:	00c7b423          	sd	a2,8(a5)
     55c:	fff5859b          	addiw	a1,a1,-1
     560:	00038793          	mv	a5,t2
     564:	000e0613          	mv	a2,t3
     568:	0087be83          	ld	t4,8(a5)
     56c:	00078f13          	mv	t5,a5
     570:	00c7b423          	sd	a2,8(a5)
     574:	fff5859b          	addiw	a1,a1,-1
     578:	000e8793          	mv	a5,t4
     57c:	000f0613          	mv	a2,t5
     580:	0087bf83          	ld	t6,8(a5)
     584:	00078713          	mv	a4,a5
     588:	00c7b423          	sd	a2,8(a5)
     58c:	fff5859b          	addiw	a1,a1,-1
     590:	000f8793          	mv	a5,t6
     594:	00070613          	mv	a2,a4
     598:	0087b283          	ld	t0,8(a5)
     59c:	fff5869b          	addiw	a3,a1,-1
     5a0:	00c7b423          	sd	a2,8(a5)
     5a4:	04068a63          	beqz	a3,5f8 <towers_clear+0x144>
     5a8:	0082b603          	ld	a2,8(t0)
     5ac:	00f2b423          	sd	a5,8(t0)
     5b0:	ff96859b          	addiw	a1,a3,-7
     5b4:	00863683          	ld	a3,8(a2)
     5b8:	00563423          	sd	t0,8(a2)
     5bc:	0086be03          	ld	t3,8(a3)
     5c0:	00c6b423          	sd	a2,8(a3)
     5c4:	008e3303          	ld	t1,8(t3)
     5c8:	00de3423          	sd	a3,8(t3)
     5cc:	00833e83          	ld	t4,8(t1)
     5d0:	01c33423          	sd	t3,8(t1)
     5d4:	008ebf03          	ld	t5,8(t4)
     5d8:	006eb423          	sd	t1,8(t4)
     5dc:	008f3783          	ld	a5,8(t5)
     5e0:	000f0613          	mv	a2,t5
     5e4:	01df3423          	sd	t4,8(t5)
     5e8:	0087b283          	ld	t0,8(a5)
     5ec:	fff5869b          	addiw	a3,a1,-1
     5f0:	00c7b423          	sd	a2,8(a5)
     5f4:	fa069ae3          	bnez	a3,5a8 <towers_clear+0xf4>
     5f8:	00553823          	sd	t0,16(a0)
     5fc:	00c7b423          	sd	a2,8(a5)
     600:	00f83423          	sd	a5,8(a6)
     604:	00052423          	sw	zero,8(a0)
     608:	01852583          	lw	a1,24(a0)
     60c:	14b05863          	blez	a1,75c <towers_clear+0x2a8>
     610:	fff5831b          	addiw	t1,a1,-1
     614:	00003817          	auipc	a6,0x3
     618:	2d480813          	addi	a6,a6,724 # 38e8 <g_nodeFreeList>
     61c:	00737393          	andi	t2,t1,7
     620:	02053783          	ld	a5,32(a0)
     624:	00883603          	ld	a2,8(a6)
     628:	10038a63          	beqz	t2,73c <towers_clear+0x288>
     62c:	0087be03          	ld	t3,8(a5)
     630:	00078e93          	mv	t4,a5
     634:	00c7b423          	sd	a2,8(a5)
     638:	00100893          	li	a7,1
     63c:	fff5859b          	addiw	a1,a1,-1
     640:	000e0793          	mv	a5,t3
     644:	000e8613          	mv	a2,t4
     648:	0f138a63          	beq	t2,a7,73c <towers_clear+0x288>
     64c:	00200f13          	li	t5,2
     650:	09e38263          	beq	t2,t5,6d4 <towers_clear+0x220>
     654:	00300f93          	li	t6,3
     658:	07f38263          	beq	t2,t6,6bc <towers_clear+0x208>
     65c:	00400713          	li	a4,4
     660:	04e38263          	beq	t2,a4,6a4 <towers_clear+0x1f0>
     664:	00500293          	li	t0,5
     668:	02538263          	beq	t2,t0,68c <towers_clear+0x1d8>
     66c:	00600693          	li	a3,6
     670:	3cd39e63          	bne	t2,a3,a4c <towers_clear+0x598>
     674:	0087b383          	ld	t2,8(a5)
     678:	00078e13          	mv	t3,a5
     67c:	00c7b423          	sd	a2,8(a5)
     680:	fff5859b          	addiw	a1,a1,-1
     684:	00038793          	mv	a5,t2
     688:	000e0613          	mv	a2,t3
     68c:	0087be83          	ld	t4,8(a5)
     690:	00078893          	mv	a7,a5
     694:	00c7b423          	sd	a2,8(a5)
     698:	fff5859b          	addiw	a1,a1,-1
     69c:	000e8793          	mv	a5,t4
     6a0:	00088613          	mv	a2,a7
     6a4:	0087bf03          	ld	t5,8(a5)
     6a8:	00078f93          	mv	t6,a5
     6ac:	00c7b423          	sd	a2,8(a5)
     6b0:	fff5859b          	addiw	a1,a1,-1
     6b4:	000f0793          	mv	a5,t5
     6b8:	000f8613          	mv	a2,t6
     6bc:	0087b283          	ld	t0,8(a5)
     6c0:	00078713          	mv	a4,a5
     6c4:	00c7b423          	sd	a2,8(a5)
     6c8:	fff5859b          	addiw	a1,a1,-1
     6cc:	00028793          	mv	a5,t0
     6d0:	00070613          	mv	a2,a4
     6d4:	0087b683          	ld	a3,8(a5)
     6d8:	00078313          	mv	t1,a5
     6dc:	00c7b423          	sd	a2,8(a5)
     6e0:	fff5859b          	addiw	a1,a1,-1
     6e4:	00068793          	mv	a5,a3
     6e8:	00030613          	mv	a2,t1
     6ec:	0087b383          	ld	t2,8(a5)
     6f0:	fff58e1b          	addiw	t3,a1,-1
     6f4:	00c7b423          	sd	a2,8(a5)
     6f8:	040e0a63          	beqz	t3,74c <towers_clear+0x298>
     6fc:	0083bf83          	ld	t6,8(t2)
     700:	00f3b423          	sd	a5,8(t2)
     704:	ff9e059b          	addiw	a1,t3,-7
     708:	008fb283          	ld	t0,8(t6)
     70c:	007fb423          	sd	t2,8(t6)
     710:	0082b703          	ld	a4,8(t0)
     714:	01f2b423          	sd	t6,8(t0)
     718:	00873783          	ld	a5,8(a4)
     71c:	00573423          	sd	t0,8(a4)
     720:	0087b383          	ld	t2,8(a5)
     724:	00e7b423          	sd	a4,8(a5)
     728:	0083b883          	ld	a7,8(t2)
     72c:	00f3b423          	sd	a5,8(t2)
     730:	0088b783          	ld	a5,8(a7)
     734:	00088613          	mv	a2,a7
     738:	0078b423          	sd	t2,8(a7)
     73c:	0087b383          	ld	t2,8(a5)
     740:	fff58e1b          	addiw	t3,a1,-1
     744:	00c7b423          	sd	a2,8(a5)
     748:	fa0e1ae3          	bnez	t3,6fc <towers_clear+0x248>
     74c:	02753023          	sd	t2,32(a0)
     750:	00c7b423          	sd	a2,8(a5)
     754:	00f83423          	sd	a5,8(a6)
     758:	00052c23          	sw	zero,24(a0)
     75c:	02852803          	lw	a6,40(a0)
     760:	13005663          	blez	a6,88c <towers_clear+0x3d8>
     764:	fff80e9b          	addiw	t4,a6,-1
     768:	00003897          	auipc	a7,0x3
     76c:	18088893          	addi	a7,a7,384 # 38e8 <g_nodeFreeList>
     770:	007eff13          	andi	t5,t4,7
     774:	03053783          	ld	a5,48(a0)
     778:	0088b703          	ld	a4,8(a7)
     77c:	0e0f0e63          	beqz	t5,878 <towers_clear+0x3c4>
     780:	0087bf83          	ld	t6,8(a5)
     784:	00100293          	li	t0,1
     788:	00e7b423          	sd	a4,8(a5)
     78c:	fff8081b          	addiw	a6,a6,-1
     790:	00078713          	mv	a4,a5
     794:	000f8793          	mv	a5,t6
     798:	0e5f0063          	beq	t5,t0,878 <towers_clear+0x3c4>
     79c:	00200693          	li	a3,2
     7a0:	06df0a63          	beq	t5,a3,814 <towers_clear+0x360>
     7a4:	00300313          	li	t1,3
     7a8:	046f0c63          	beq	t5,t1,800 <towers_clear+0x34c>
     7ac:	00400593          	li	a1,4
     7b0:	02bf0e63          	beq	t5,a1,7ec <towers_clear+0x338>
     7b4:	00500613          	li	a2,5
     7b8:	02cf0063          	beq	t5,a2,7d8 <towers_clear+0x324>
     7bc:	00600393          	li	t2,6
     7c0:	2a7f1263          	bne	t5,t2,a64 <towers_clear+0x5b0>
     7c4:	0087be83          	ld	t4,8(a5)
     7c8:	fff8081b          	addiw	a6,a6,-1
     7cc:	00e7b423          	sd	a4,8(a5)
     7d0:	00078713          	mv	a4,a5
     7d4:	000e8793          	mv	a5,t4
     7d8:	0087bf03          	ld	t5,8(a5)
     7dc:	fff8081b          	addiw	a6,a6,-1
     7e0:	00e7b423          	sd	a4,8(a5)
     7e4:	00078713          	mv	a4,a5
     7e8:	000f0793          	mv	a5,t5
     7ec:	0087bf83          	ld	t6,8(a5)
     7f0:	fff8081b          	addiw	a6,a6,-1
     7f4:	00e7b423          	sd	a4,8(a5)
     7f8:	00078713          	mv	a4,a5
     7fc:	000f8793          	mv	a5,t6
     800:	0087b283          	ld	t0,8(a5)
     804:	fff8081b          	addiw	a6,a6,-1
     808:	00e7b423          	sd	a4,8(a5)
     80c:	00078713          	mv	a4,a5
     810:	00028793          	mv	a5,t0
     814:	0087b683          	ld	a3,8(a5)
     818:	fff8081b          	addiw	a6,a6,-1
     81c:	00e7b423          	sd	a4,8(a5)
     820:	00078713          	mv	a4,a5
     824:	00068793          	mv	a5,a3
     828:	0087b303          	ld	t1,8(a5)
     82c:	fff8061b          	addiw	a2,a6,-1
     830:	00e7b423          	sd	a4,8(a5)
     834:	04060a63          	beqz	a2,888 <towers_clear+0x3d4>
     838:	00833683          	ld	a3,8(t1)
     83c:	00f33423          	sd	a5,8(t1)
     840:	ff96081b          	addiw	a6,a2,-7
     844:	0086be03          	ld	t3,8(a3)
     848:	0066b423          	sd	t1,8(a3)
     84c:	008e3303          	ld	t1,8(t3)
     850:	00de3423          	sd	a3,8(t3)
     854:	00833583          	ld	a1,8(t1)
     858:	01c33423          	sd	t3,8(t1)
     85c:	0085be83          	ld	t4,8(a1)
     860:	0065b423          	sd	t1,8(a1)
     864:	008ebf03          	ld	t5,8(t4)
     868:	00beb423          	sd	a1,8(t4)
     86c:	008f3783          	ld	a5,8(t5)
     870:	000f0713          	mv	a4,t5
     874:	01df3423          	sd	t4,8(t5)
     878:	0087b303          	ld	t1,8(a5)
     87c:	fff8061b          	addiw	a2,a6,-1
     880:	00e7b423          	sd	a4,8(a5)
     884:	fa061ae3          	bnez	a2,838 <towers_clear+0x384>
     888:	00f8b423          	sd	a5,8(a7)
     88c:	00052f03          	lw	t5,0(a0)
     890:	00052223          	sw	zero,4(a0)
     894:	00052423          	sw	zero,8(a0)
     898:	00053823          	sd	zero,16(a0)
     89c:	00052c23          	sw	zero,24(a0)
     8a0:	02053023          	sd	zero,32(a0)
     8a4:	02052423          	sw	zero,40(a0)
     8a8:	02053823          	sd	zero,48(a0)
     8ac:	19e05263          	blez	t5,a30 <towers_clear+0x57c>
     8b0:	ffff089b          	addiw	a7,t5,-1
     8b4:	00003f97          	auipc	t6,0x3
     8b8:	034f8f93          	addi	t6,t6,52 # 38e8 <g_nodeFreeList>
     8bc:	0078f393          	andi	t2,a7,7
     8c0:	008fb783          	ld	a5,8(t6)
     8c4:	000f071b          	sext.w	a4,t5
     8c8:	00000613          	li	a2,0
     8cc:	12038063          	beqz	t2,9ec <towers_clear+0x538>
     8d0:	0087be03          	ld	t3,8(a5)
     8d4:	00e7a023          	sw	a4,0(a5)
     8d8:	0007b423          	sd	zero,8(a5)
     8dc:	00100593          	li	a1,1
     8e0:	00078613          	mv	a2,a5
     8e4:	fff7071b          	addiw	a4,a4,-1
     8e8:	000e0793          	mv	a5,t3
     8ec:	10b38063          	beq	t2,a1,9ec <towers_clear+0x538>
     8f0:	00200e93          	li	t4,2
     8f4:	09d38263          	beq	t2,t4,978 <towers_clear+0x4c4>
     8f8:	00300293          	li	t0,3
     8fc:	06538263          	beq	t2,t0,960 <towers_clear+0x4ac>
     900:	00400693          	li	a3,4
     904:	04d38263          	beq	t2,a3,948 <towers_clear+0x494>
     908:	00500813          	li	a6,5
     90c:	03038263          	beq	t2,a6,930 <towers_clear+0x47c>
     910:	00600313          	li	t1,6
     914:	16639463          	bne	t2,t1,a7c <towers_clear+0x5c8>
     918:	0087b383          	ld	t2,8(a5)
     91c:	00e7a023          	sw	a4,0(a5)
     920:	00c7b423          	sd	a2,8(a5)
     924:	fff7071b          	addiw	a4,a4,-1
     928:	00078613          	mv	a2,a5
     92c:	00038793          	mv	a5,t2
     930:	0087be03          	ld	t3,8(a5)
     934:	00e7a023          	sw	a4,0(a5)
     938:	00c7b423          	sd	a2,8(a5)
     93c:	fff7071b          	addiw	a4,a4,-1
     940:	00078613          	mv	a2,a5
     944:	000e0793          	mv	a5,t3
     948:	0087b583          	ld	a1,8(a5)
     94c:	00e7a023          	sw	a4,0(a5)
     950:	00c7b423          	sd	a2,8(a5)
     954:	fff7071b          	addiw	a4,a4,-1
     958:	00078613          	mv	a2,a5
     95c:	00058793          	mv	a5,a1
     960:	0087be83          	ld	t4,8(a5)
     964:	00e7a023          	sw	a4,0(a5)
     968:	00c7b423          	sd	a2,8(a5)
     96c:	fff7071b          	addiw	a4,a4,-1
     970:	00078613          	mv	a2,a5
     974:	000e8793          	mv	a5,t4
     978:	0087b283          	ld	t0,8(a5)
     97c:	00e7a023          	sw	a4,0(a5)
     980:	00c7b423          	sd	a2,8(a5)
     984:	fff7071b          	addiw	a4,a4,-1
     988:	00078613          	mv	a2,a5
     98c:	00028793          	mv	a5,t0
     990:	05c0006f          	j	9ec <towers_clear+0x538>
     994:	0086b283          	ld	t0,8(a3)
     998:	00f6b423          	sd	a5,8(a3)
     99c:	0076a023          	sw	t2,0(a3)
     9a0:	0082b703          	ld	a4,8(t0)
     9a4:	00d2b423          	sd	a3,8(t0)
     9a8:	01c2a023          	sw	t3,0(t0)
     9ac:	00873603          	ld	a2,8(a4)
     9b0:	00573423          	sd	t0,8(a4)
     9b4:	00672023          	sw	t1,0(a4)
     9b8:	00863783          	ld	a5,8(a2)
     9bc:	00e63423          	sd	a4,8(a2)
     9c0:	01162023          	sw	a7,0(a2)
     9c4:	0087b383          	ld	t2,8(a5)
     9c8:	00c7b423          	sd	a2,8(a5)
     9cc:	0107a023          	sw	a6,0(a5)
     9d0:	0083b603          	ld	a2,8(t2)
     9d4:	00b3a023          	sw	a1,0(t2)
     9d8:	00f3b423          	sd	a5,8(t2)
     9dc:	00863783          	ld	a5,8(a2)
     9e0:	01d62023          	sw	t4,0(a2)
     9e4:	00763423          	sd	t2,8(a2)
     9e8:	fffe871b          	addiw	a4,t4,-1
     9ec:	fff7039b          	addiw	t2,a4,-1
     9f0:	fff38e1b          	addiw	t3,t2,-1
     9f4:	fffe031b          	addiw	t1,t3,-1
     9f8:	fff3089b          	addiw	a7,t1,-1
     9fc:	fff8881b          	addiw	a6,a7,-1
     a00:	0087b683          	ld	a3,8(a5)
     a04:	fff8059b          	addiw	a1,a6,-1
     a08:	00e7a023          	sw	a4,0(a5)
     a0c:	00c7b423          	sd	a2,8(a5)
     a10:	fff58e9b          	addiw	t4,a1,-1
     a14:	f80390e3          	bnez	t2,994 <towers_clear+0x4e0>
     a18:	00dfb423          	sd	a3,8(t6)
     a1c:	00c7b423          	sd	a2,8(a5)
     a20:	00f53823          	sd	a5,16(a0)
     a24:	00100f93          	li	t6,1
     a28:	01f7a023          	sw	t6,0(a5)
     a2c:	01e52423          	sw	t5,8(a0)
     a30:	00008067          	ret
     a34:	0086b703          	ld	a4,8(a3)
     a38:	fff5859b          	addiw	a1,a1,-1
     a3c:	0067b423          	sd	t1,8(a5)
     a40:	00068613          	mv	a2,a3
     a44:	00070793          	mv	a5,a4
     a48:	ad9ff06f          	j	520 <towers_clear+0x6c>
     a4c:	008e3303          	ld	t1,8(t3)
     a50:	fff5859b          	addiw	a1,a1,-1
     a54:	01d7b423          	sd	t4,8(a5)
     a58:	000e0613          	mv	a2,t3
     a5c:	00030793          	mv	a5,t1
     a60:	c15ff06f          	j	674 <towers_clear+0x1c0>
     a64:	008fbe03          	ld	t3,8(t6)
     a68:	fff8081b          	addiw	a6,a6,-1
     a6c:	00efb423          	sd	a4,8(t6)
     a70:	000e0793          	mv	a5,t3
     a74:	000f8713          	mv	a4,t6
     a78:	d4dff06f          	j	7c4 <towers_clear+0x310>
     a7c:	008e3883          	ld	a7,8(t3)
     a80:	00ee2023          	sw	a4,0(t3)
     a84:	00ce3423          	sd	a2,8(t3)
     a88:	fff7071b          	addiw	a4,a4,-1
     a8c:	000e0613          	mv	a2,t3
     a90:	00088793          	mv	a5,a7
     a94:	e85ff06f          	j	918 <towers_clear+0x464>

0000000000000a98 <towers_solve_h>:
     a98:	f5010113          	addi	sp,sp,-176
     a9c:	09213823          	sd	s2,144(sp)
     aa0:	07513c23          	sd	s5,120(sp)
     aa4:	07613823          	sd	s6,112(sp)
     aa8:	05913c23          	sd	s9,88(sp)
     aac:	0a113423          	sd	ra,168(sp)
     ab0:	0a813023          	sd	s0,160(sp)
     ab4:	08913c23          	sd	s1,152(sp)
     ab8:	09313423          	sd	s3,136(sp)
     abc:	09413023          	sd	s4,128(sp)
     ac0:	07713423          	sd	s7,104(sp)
     ac4:	07813023          	sd	s8,96(sp)
     ac8:	05a13823          	sd	s10,80(sp)
     acc:	05b13423          	sd	s11,72(sp)
     ad0:	02b13423          	sd	a1,40(sp)
     ad4:	00100793          	li	a5,1
     ad8:	02c13823          	sd	a2,48(sp)
     adc:	02e13c23          	sd	a4,56(sp)
     ae0:	00050913          	mv	s2,a0
     ae4:	00003a97          	auipc	s5,0x3
     ae8:	e04a8a93          	addi	s5,s5,-508 # 38e8 <g_nodeFreeList>
     aec:	00068c93          	mv	s9,a3
     af0:	00100b13          	li	s6,1
     af4:	40f58863          	beq	a1,a5,f04 <towers_solve_h+0x46c>
     af8:	02813083          	ld	ra,40(sp)
     afc:	fff0829b          	addiw	t0,ra,-1
     b00:	02513423          	sd	t0,40(sp)
     b04:	35628863          	beq	t0,s6,e54 <towers_solve_h+0x3bc>
     b08:	03013303          	ld	t1,48(sp)
     b0c:	02813383          	ld	t2,40(sp)
     b10:	03813d83          	ld	s11,56(sp)
     b14:	02613023          	sd	t1,32(sp)
     b18:	00713c23          	sd	t2,24(sp)
     b1c:	01813403          	ld	s0,24(sp)
     b20:	fff4049b          	addiw	s1,s0,-1
     b24:	00913c23          	sd	s1,24(sp)
     b28:	29648063          	beq	s1,s6,da8 <towers_solve_h+0x310>
     b2c:	02013c03          	ld	s8,32(sp)
     b30:	01813d03          	ld	s10,24(sp)
     b34:	000c8413          	mv	s0,s9
     b38:	fffd0d1b          	addiw	s10,s10,-1
     b3c:	1d6d0463          	beq	s10,s6,d04 <towers_solve_h+0x26c>
     b40:	ffed0b9b          	addiw	s7,s10,-2
     b44:	003bfb93          	andi	s7,s7,3
     b48:	000d8493          	mv	s1,s11
     b4c:	000c0993          	mv	s3,s8
     b50:	000d0a13          	mv	s4,s10
     b54:	0c0b8663          	beqz	s7,c20 <towers_solve_h+0x188>
     b58:	fffd0a1b          	addiw	s4,s10,-1
     b5c:	000a0593          	mv	a1,s4
     b60:	00090513          	mv	a0,s2
     b64:	000d8713          	mv	a4,s11
     b68:	00040693          	mv	a3,s0
     b6c:	000c0613          	mv	a2,s8
     b70:	f29ff0ef          	jal	ra,a98 <towers_solve_h>
     b74:	00040713          	mv	a4,s0
     b78:	000d8693          	mv	a3,s11
     b7c:	000c0613          	mv	a2,s8
     b80:	00100593          	li	a1,1
     b84:	00090513          	mv	a0,s2
     b88:	f11ff0ef          	jal	ra,a98 <towers_solve_h>
     b8c:	00100713          	li	a4,1
     b90:	000d8993          	mv	s3,s11
     b94:	000c0493          	mv	s1,s8
     b98:	08eb8463          	beq	s7,a4,c20 <towers_solve_h+0x188>
     b9c:	00200513          	li	a0,2
     ba0:	04ab8063          	beq	s7,a0,be0 <towers_solve_h+0x148>
     ba4:	fffa0a1b          	addiw	s4,s4,-1
     ba8:	000a0593          	mv	a1,s4
     bac:	00090513          	mv	a0,s2
     bb0:	000c0713          	mv	a4,s8
     bb4:	00040693          	mv	a3,s0
     bb8:	000d8613          	mv	a2,s11
     bbc:	eddff0ef          	jal	ra,a98 <towers_solve_h>
     bc0:	00040713          	mv	a4,s0
     bc4:	000c0693          	mv	a3,s8
     bc8:	000d8613          	mv	a2,s11
     bcc:	00100593          	li	a1,1
     bd0:	00090513          	mv	a0,s2
     bd4:	ec5ff0ef          	jal	ra,a98 <towers_solve_h>
     bd8:	000c0993          	mv	s3,s8
     bdc:	000d8493          	mv	s1,s11
     be0:	fffa0a1b          	addiw	s4,s4,-1
     be4:	00048713          	mv	a4,s1
     be8:	00098613          	mv	a2,s3
     bec:	000a0593          	mv	a1,s4
     bf0:	00090513          	mv	a0,s2
     bf4:	00040693          	mv	a3,s0
     bf8:	ea1ff0ef          	jal	ra,a98 <towers_solve_h>
     bfc:	00048693          	mv	a3,s1
     c00:	00098613          	mv	a2,s3
     c04:	00100593          	li	a1,1
     c08:	00040713          	mv	a4,s0
     c0c:	00090513          	mv	a0,s2
     c10:	e89ff0ef          	jal	ra,a98 <towers_solve_h>
     c14:	00098593          	mv	a1,s3
     c18:	00048993          	mv	s3,s1
     c1c:	00058493          	mv	s1,a1
     c20:	fffa061b          	addiw	a2,s4,-1
     c24:	fff60e1b          	addiw	t3,a2,-1
     c28:	00060593          	mv	a1,a2
     c2c:	00c13423          	sd	a2,8(sp)
     c30:	00090513          	mv	a0,s2
     c34:	00048713          	mv	a4,s1
     c38:	00040693          	mv	a3,s0
     c3c:	00098613          	mv	a2,s3
     c40:	fffe0b9b          	addiw	s7,t3,-1
     c44:	01c13823          	sd	t3,16(sp)
     c48:	e51ff0ef          	jal	ra,a98 <towers_solve_h>
     c4c:	00040713          	mv	a4,s0
     c50:	00048693          	mv	a3,s1
     c54:	00098613          	mv	a2,s3
     c58:	00090513          	mv	a0,s2
     c5c:	00100593          	li	a1,1
     c60:	e39ff0ef          	jal	ra,a98 <towers_solve_h>
     c64:	00813803          	ld	a6,8(sp)
     c68:	01013583          	ld	a1,16(sp)
     c6c:	fffb8a1b          	addiw	s4,s7,-1
     c70:	00090513          	mv	a0,s2
     c74:	00098713          	mv	a4,s3
     c78:	00040693          	mv	a3,s0
     c7c:	00048613          	mv	a2,s1
     c80:	09680463          	beq	a6,s6,d08 <towers_solve_h+0x270>
     c84:	e15ff0ef          	jal	ra,a98 <towers_solve_h>
     c88:	00040713          	mv	a4,s0
     c8c:	00098693          	mv	a3,s3
     c90:	00048613          	mv	a2,s1
     c94:	00090513          	mv	a0,s2
     c98:	00100593          	li	a1,1
     c9c:	dfdff0ef          	jal	ra,a98 <towers_solve_h>
     ca0:	000b8593          	mv	a1,s7
     ca4:	00090513          	mv	a0,s2
     ca8:	00048713          	mv	a4,s1
     cac:	00040693          	mv	a3,s0
     cb0:	00098613          	mv	a2,s3
     cb4:	de5ff0ef          	jal	ra,a98 <towers_solve_h>
     cb8:	00040713          	mv	a4,s0
     cbc:	00048693          	mv	a3,s1
     cc0:	00098613          	mv	a2,s3
     cc4:	00090513          	mv	a0,s2
     cc8:	00100593          	li	a1,1
     ccc:	dcdff0ef          	jal	ra,a98 <towers_solve_h>
     cd0:	000a0593          	mv	a1,s4
     cd4:	00090513          	mv	a0,s2
     cd8:	00098713          	mv	a4,s3
     cdc:	00040693          	mv	a3,s0
     ce0:	00048613          	mv	a2,s1
     ce4:	db5ff0ef          	jal	ra,a98 <towers_solve_h>
     ce8:	00040713          	mv	a4,s0
     cec:	00098693          	mv	a3,s3
     cf0:	00048613          	mv	a2,s1
     cf4:	00100593          	li	a1,1
     cf8:	00090513          	mv	a0,s2
     cfc:	d9dff0ef          	jal	ra,a98 <towers_solve_h>
     d00:	f21ff06f          	j	c20 <towers_solve_h+0x188>
     d04:	000c0493          	mv	s1,s8
     d08:	0084b683          	ld	a3,8(s1)
     d0c:	0004a883          	lw	a7,0(s1)
     d10:	00492e83          	lw	t4,4(s2)
     d14:	0086bf03          	ld	t5,8(a3)
     d18:	0006af83          	lw	t6,0(a3)
     d1c:	fff8879b          	addiw	a5,a7,-1
     d20:	01e4b423          	sd	t5,8(s1)
     d24:	008ab083          	ld	ra,8(s5)
     d28:	00f4a023          	sw	a5,0(s1)
     d2c:	00042283          	lw	t0,0(s0)
     d30:	001ab423          	sd	ra,8(s5)
     d34:	00843383          	ld	t2,8(s0)
     d38:	0012851b          	addiw	a0,t0,1
     d3c:	002e831b          	addiw	t1,t4,2
     d40:	0076b423          	sd	t2,8(a3)
     d44:	00d43423          	sd	a3,8(s0)
     d48:	008c3703          	ld	a4,8(s8)
     d4c:	01f6a023          	sw	t6,0(a3)
     d50:	00a42023          	sw	a0,0(s0)
     d54:	00873983          	ld	s3,8(a4)
     d58:	000c2483          	lw	s1,0(s8)
     d5c:	00072603          	lw	a2,0(a4)
     d60:	013c3423          	sd	s3,8(s8)
     d64:	008abe03          	ld	t3,8(s5)
     d68:	fff48b9b          	addiw	s7,s1,-1
     d6c:	017c2023          	sw	s7,0(s8)
     d70:	01cab423          	sd	t3,8(s5)
     d74:	008db583          	ld	a1,8(s11)
     d78:	000da803          	lw	a6,0(s11)
     d7c:	00b73423          	sd	a1,8(a4)
     d80:	00edb423          	sd	a4,8(s11)
     d84:	00c72023          	sw	a2,0(a4)
     d88:	0018069b          	addiw	a3,a6,1
     d8c:	00dda023          	sw	a3,0(s11)
     d90:	00692223          	sw	t1,4(s2)
     d94:	016d0e63          	beq	s10,s6,db0 <towers_solve_h+0x318>
     d98:	000c0893          	mv	a7,s8
     d9c:	00040c13          	mv	s8,s0
     da0:	00088413          	mv	s0,a7
     da4:	d95ff06f          	j	b38 <towers_solve_h+0xa0>
     da8:	00492303          	lw	t1,4(s2)
     dac:	02013403          	ld	s0,32(sp)
     db0:	00843d03          	ld	s10,8(s0)
     db4:	00042e83          	lw	t4,0(s0)
     db8:	02013983          	ld	s3,32(sp)
     dbc:	008d3f83          	ld	t6,8(s10)
     dc0:	000d2083          	lw	ra,0(s10)
     dc4:	fffe879b          	addiw	a5,t4,-1
     dc8:	01f43423          	sd	t6,8(s0)
     dcc:	008ab283          	ld	t0,8(s5)
     dd0:	00f42023          	sw	a5,0(s0)
     dd4:	000da383          	lw	t2,0(s11)
     dd8:	005ab423          	sd	t0,8(s5)
     ddc:	008db503          	ld	a0,8(s11)
     de0:	00230f1b          	addiw	t5,t1,2
     de4:	0013831b          	addiw	t1,t2,1
     de8:	00ad3423          	sd	a0,8(s10)
     dec:	01adb423          	sd	s10,8(s11)
     df0:	0089b483          	ld	s1,8(s3)
     df4:	001d2023          	sw	ra,0(s10)
     df8:	006da023          	sw	t1,0(s11)
     dfc:	0084b603          	ld	a2,8(s1)
     e00:	0009a703          	lw	a4,0(s3)
     e04:	0004ae03          	lw	t3,0(s1)
     e08:	00c9b423          	sd	a2,8(s3)
     e0c:	008abb83          	ld	s7,8(s5)
     e10:	fff7059b          	addiw	a1,a4,-1
     e14:	00b9a023          	sw	a1,0(s3)
     e18:	017ab423          	sd	s7,8(s5)
     e1c:	008cb803          	ld	a6,8(s9)
     e20:	000ca683          	lw	a3,0(s9)
     e24:	01813c03          	ld	s8,24(sp)
     e28:	0104b423          	sd	a6,8(s1)
     e2c:	009cb423          	sd	s1,8(s9)
     e30:	01c4a023          	sw	t3,0(s1)
     e34:	0016889b          	addiw	a7,a3,1
     e38:	011ca023          	sw	a7,0(s9)
     e3c:	01e92223          	sw	t5,4(s2)
     e40:	000f0a1b          	sext.w	s4,t5
     e44:	016c0c63          	beq	s8,s6,e5c <towers_solve_h+0x3c4>
     e48:	03b13023          	sd	s11,32(sp)
     e4c:	00098d93          	mv	s11,s3
     e50:	ccdff06f          	j	b1c <towers_solve_h+0x84>
     e54:	00492a03          	lw	s4,4(s2)
     e58:	03013d83          	ld	s11,48(sp)
     e5c:	008dbd03          	ld	s10,8(s11)
     e60:	000dae83          	lw	t4,0(s11)
     e64:	03013983          	ld	s3,48(sp)
     e68:	008d3f83          	ld	t6,8(s10)
     e6c:	000d2083          	lw	ra,0(s10)
     e70:	fffe879b          	addiw	a5,t4,-1
     e74:	01fdb423          	sd	t6,8(s11)
     e78:	008ab283          	ld	t0,8(s5)
     e7c:	00fda023          	sw	a5,0(s11)
     e80:	000ca383          	lw	t2,0(s9)
     e84:	005ab423          	sd	t0,8(s5)
     e88:	008cb503          	ld	a0,8(s9)
     e8c:	0013831b          	addiw	t1,t2,1
     e90:	03813803          	ld	a6,56(sp)
     e94:	00ad3423          	sd	a0,8(s10)
     e98:	01acb423          	sd	s10,8(s9)
     e9c:	0089b483          	ld	s1,8(s3)
     ea0:	001d2023          	sw	ra,0(s10)
     ea4:	006ca023          	sw	t1,0(s9)
     ea8:	0084b603          	ld	a2,8(s1)
     eac:	0009a703          	lw	a4,0(s3)
     eb0:	0004ae03          	lw	t3,0(s1)
     eb4:	00c9b423          	sd	a2,8(s3)
     eb8:	008abb83          	ld	s7,8(s5)
     ebc:	fff7059b          	addiw	a1,a4,-1
     ec0:	00b9a023          	sw	a1,0(s3)
     ec4:	017ab423          	sd	s7,8(s5)
     ec8:	00883683          	ld	a3,8(a6)
     ecc:	00082883          	lw	a7,0(a6)
     ed0:	02813d83          	ld	s11,40(sp)
     ed4:	00d4b423          	sd	a3,8(s1)
     ed8:	00983423          	sd	s1,8(a6)
     edc:	01c4a023          	sw	t3,0(s1)
     ee0:	0018841b          	addiw	s0,a7,1
     ee4:	002a0f1b          	addiw	t5,s4,2
     ee8:	00882023          	sw	s0,0(a6)
     eec:	01e92223          	sw	t5,4(s2)
     ef0:	000f0a1b          	sext.w	s4,t5
     ef4:	016d8c63          	beq	s11,s6,f0c <towers_solve_h+0x474>
     ef8:	03913823          	sd	s9,48(sp)
     efc:	00098c93          	mv	s9,s3
     f00:	bf9ff06f          	j	af8 <towers_solve_h+0x60>
     f04:	00452a03          	lw	s4,4(a0)
     f08:	03013c83          	ld	s9,48(sp)
     f0c:	008cbb03          	ld	s6,8(s9)
     f10:	000cae83          	lw	t4,0(s9)
     f14:	03813383          	ld	t2,56(sp)
     f18:	008b3f83          	ld	t6,8(s6)
     f1c:	000b2083          	lw	ra,0(s6)
     f20:	fffe879b          	addiw	a5,t4,-1
     f24:	01fcb423          	sd	t6,8(s9)
     f28:	008ab283          	ld	t0,8(s5)
     f2c:	00fca023          	sw	a5,0(s9)
     f30:	0003a503          	lw	a0,0(t2)
     f34:	005ab423          	sd	t0,8(s5)
     f38:	0083ba83          	ld	s5,8(t2)
     f3c:	0a013403          	ld	s0,160(sp)
     f40:	0015031b          	addiw	t1,a0,1
     f44:	015b3423          	sd	s5,8(s6)
     f48:	0163b423          	sd	s6,8(t2)
     f4c:	001b2023          	sw	ra,0(s6)
     f50:	0a813083          	ld	ra,168(sp)
     f54:	001a0f1b          	addiw	t5,s4,1
     f58:	0063a023          	sw	t1,0(t2)
     f5c:	01e92223          	sw	t5,4(s2)
     f60:	09813483          	ld	s1,152(sp)
     f64:	09013903          	ld	s2,144(sp)
     f68:	08813983          	ld	s3,136(sp)
     f6c:	08013a03          	ld	s4,128(sp)
     f70:	07813a83          	ld	s5,120(sp)
     f74:	07013b03          	ld	s6,112(sp)
     f78:	06813b83          	ld	s7,104(sp)
     f7c:	06013c03          	ld	s8,96(sp)
     f80:	05813c83          	ld	s9,88(sp)
     f84:	05013d03          	ld	s10,80(sp)
     f88:	04813d83          	ld	s11,72(sp)
     f8c:	0b010113          	addi	sp,sp,176
     f90:	00008067          	ret

0000000000000f94 <towers_solve>:
     f94:	00052583          	lw	a1,0(a0)
     f98:	02850713          	addi	a4,a0,40
     f9c:	01850693          	addi	a3,a0,24
     fa0:	00850613          	addi	a2,a0,8
     fa4:	af5ff06f          	j	a98 <towers_solve_h>

0000000000000fa8 <towers_verify>:
     fa8:	00852783          	lw	a5,8(a0)
     fac:	00050693          	mv	a3,a0
     fb0:	04079463          	bnez	a5,ff8 <towers_verify+0x50>
     fb4:	01852703          	lw	a4,24(a0)
     fb8:	00300513          	li	a0,3
     fbc:	02071c63          	bnez	a4,ff4 <towers_verify+0x4c>
     fc0:	0006a583          	lw	a1,0(a3)
     fc4:	0286a283          	lw	t0,40(a3)
     fc8:	00400513          	li	a0,4
     fcc:	02b29463          	bne	t0,a1,ff4 <towers_verify+0x4c>
     fd0:	0306b303          	ld	t1,48(a3)
     fd4:	00031863          	bnez	t1,fe4 <towers_verify+0x3c>
     fd8:	0280006f          	j	1000 <towers_verify+0x58>
     fdc:	00833303          	ld	t1,8(t1)
     fe0:	02030063          	beqz	t1,1000 <towers_verify+0x58>
     fe4:	00032603          	lw	a2,0(t1)
     fe8:	0017071b          	addiw	a4,a4,1
     fec:	fee608e3          	beq	a2,a4,fdc <towers_verify+0x34>
     ff0:	00500513          	li	a0,5
     ff4:	00008067          	ret
     ff8:	00200513          	li	a0,2
     ffc:	00008067          	ret
    1000:	00100513          	li	a0,1
    1004:	0046a383          	lw	t2,4(a3)
    1008:	00b5183b          	sllw	a6,a0,a1
    100c:	fff8089b          	addiw	a7,a6,-1
    1010:	00600513          	li	a0,6
    1014:	ff1390e3          	bne	t2,a7,ff4 <towers_verify+0x4c>
    1018:	00bc6e37          	lui	t3,0xbc6
    101c:	14ee0513          	addi	a0,t3,334 # bc614e <g_nodePool+0xbc2856>
    1020:	00008067          	ret

0000000000001024 <setStats>:
    1024:	00008067          	ret

0000000000001028 <memcpy>:
    1028:	00b567b3          	or	a5,a0,a1
    102c:	00c7e2b3          	or	t0,a5,a2
    1030:	0072f313          	andi	t1,t0,7
    1034:	00c506b3          	add	a3,a0,a2
    1038:	10030863          	beqz	t1,1148 <memcpy+0x120>
    103c:	00c58633          	add	a2,a1,a2
    1040:	00050793          	mv	a5,a0
    1044:	10d57063          	bgeu	a0,a3,1144 <memcpy+0x11c>
    1048:	40b60733          	sub	a4,a2,a1
    104c:	00777393          	andi	t2,a4,7
    1050:	0a038463          	beqz	t2,10f8 <memcpy+0xd0>
    1054:	00100813          	li	a6,1
    1058:	09038663          	beq	t2,a6,10e4 <memcpy+0xbc>
    105c:	00200893          	li	a7,2
    1060:	07138a63          	beq	t2,a7,10d4 <memcpy+0xac>
    1064:	00300e13          	li	t3,3
    1068:	05c38e63          	beq	t2,t3,10c4 <memcpy+0x9c>
    106c:	00400e93          	li	t4,4
    1070:	05d38263          	beq	t2,t4,10b4 <memcpy+0x8c>
    1074:	00500f13          	li	t5,5
    1078:	03e38663          	beq	t2,t5,10a4 <memcpy+0x7c>
    107c:	00600f93          	li	t6,6
    1080:	01f38a63          	beq	t2,t6,1094 <memcpy+0x6c>
    1084:	0005c283          	lbu	t0,0(a1)
    1088:	00150793          	addi	a5,a0,1
    108c:	00158593          	addi	a1,a1,1
    1090:	00550023          	sb	t0,0(a0)
    1094:	0005c303          	lbu	t1,0(a1)
    1098:	00178793          	addi	a5,a5,1
    109c:	00158593          	addi	a1,a1,1
    10a0:	fe678fa3          	sb	t1,-1(a5)
    10a4:	0005c683          	lbu	a3,0(a1)
    10a8:	00178793          	addi	a5,a5,1
    10ac:	00158593          	addi	a1,a1,1
    10b0:	fed78fa3          	sb	a3,-1(a5)
    10b4:	0005c703          	lbu	a4,0(a1)
    10b8:	00178793          	addi	a5,a5,1
    10bc:	00158593          	addi	a1,a1,1
    10c0:	fee78fa3          	sb	a4,-1(a5)
    10c4:	0005c383          	lbu	t2,0(a1)
    10c8:	00178793          	addi	a5,a5,1
    10cc:	00158593          	addi	a1,a1,1
    10d0:	fe778fa3          	sb	t2,-1(a5)
    10d4:	0005c803          	lbu	a6,0(a1)
    10d8:	00178793          	addi	a5,a5,1
    10dc:	00158593          	addi	a1,a1,1
    10e0:	ff078fa3          	sb	a6,-1(a5)
    10e4:	0005c883          	lbu	a7,0(a1)
    10e8:	00158593          	addi	a1,a1,1
    10ec:	00178793          	addi	a5,a5,1
    10f0:	ff178fa3          	sb	a7,-1(a5)
    10f4:	16c58c63          	beq	a1,a2,126c <memcpy+0x244>
    10f8:	0005ce03          	lbu	t3,0(a1)
    10fc:	00858593          	addi	a1,a1,8
    1100:	00878793          	addi	a5,a5,8
    1104:	ffc78c23          	sb	t3,-8(a5)
    1108:	ff95ce83          	lbu	t4,-7(a1)
    110c:	ffd78ca3          	sb	t4,-7(a5)
    1110:	ffa5cf03          	lbu	t5,-6(a1)
    1114:	ffe78d23          	sb	t5,-6(a5)
    1118:	ffb5cf83          	lbu	t6,-5(a1)
    111c:	fff78da3          	sb	t6,-5(a5)
    1120:	ffc5c283          	lbu	t0,-4(a1)
    1124:	fe578e23          	sb	t0,-4(a5)
    1128:	ffd5c303          	lbu	t1,-3(a1)
    112c:	fe678ea3          	sb	t1,-3(a5)
    1130:	ffe5c683          	lbu	a3,-2(a1)
    1134:	fed78f23          	sb	a3,-2(a5)
    1138:	fff5c703          	lbu	a4,-1(a1)
    113c:	fee78fa3          	sb	a4,-1(a5)
    1140:	fac59ce3          	bne	a1,a2,10f8 <memcpy+0xd0>
    1144:	00008067          	ret
    1148:	fed57ee3          	bgeu	a0,a3,1144 <memcpy+0x11c>
    114c:	0005b603          	ld	a2,0(a1)
    1150:	fff54393          	not	t2,a0
    1154:	00768833          	add	a6,a3,t2
    1158:	00385893          	srli	a7,a6,0x3
    115c:	00850793          	addi	a5,a0,8
    1160:	fec7bc23          	sd	a2,-8(a5)
    1164:	00858593          	addi	a1,a1,8
    1168:	0078fe13          	andi	t3,a7,7
    116c:	10d7f463          	bgeu	a5,a3,1274 <memcpy+0x24c>
    1170:	080e0c63          	beqz	t3,1208 <memcpy+0x1e0>
    1174:	00100e93          	li	t4,1
    1178:	07de0e63          	beq	t3,t4,11f4 <memcpy+0x1cc>
    117c:	00200f13          	li	t5,2
    1180:	07ee0263          	beq	t3,t5,11e4 <memcpy+0x1bc>
    1184:	00300f93          	li	t6,3
    1188:	05fe0663          	beq	t3,t6,11d4 <memcpy+0x1ac>
    118c:	00400293          	li	t0,4
    1190:	025e0a63          	beq	t3,t0,11c4 <memcpy+0x19c>
    1194:	00500313          	li	t1,5
    1198:	006e0e63          	beq	t3,t1,11b4 <memcpy+0x18c>
    119c:	00600713          	li	a4,6
    11a0:	0aee1c63          	bne	t3,a4,1258 <memcpy+0x230>
    11a4:	0005b383          	ld	t2,0(a1)
    11a8:	00878793          	addi	a5,a5,8
    11ac:	00858593          	addi	a1,a1,8
    11b0:	fe77bc23          	sd	t2,-8(a5)
    11b4:	0005b803          	ld	a6,0(a1)
    11b8:	00878793          	addi	a5,a5,8
    11bc:	00858593          	addi	a1,a1,8
    11c0:	ff07bc23          	sd	a6,-8(a5)
    11c4:	0005b883          	ld	a7,0(a1)
    11c8:	00878793          	addi	a5,a5,8
    11cc:	00858593          	addi	a1,a1,8
    11d0:	ff17bc23          	sd	a7,-8(a5)
    11d4:	0005be03          	ld	t3,0(a1)
    11d8:	00878793          	addi	a5,a5,8
    11dc:	00858593          	addi	a1,a1,8
    11e0:	ffc7bc23          	sd	t3,-8(a5)
    11e4:	0005be83          	ld	t4,0(a1)
    11e8:	00878793          	addi	a5,a5,8
    11ec:	00858593          	addi	a1,a1,8
    11f0:	ffd7bc23          	sd	t4,-8(a5)
    11f4:	0005bf03          	ld	t5,0(a1)
    11f8:	00878793          	addi	a5,a5,8
    11fc:	00858593          	addi	a1,a1,8
    1200:	ffe7bc23          	sd	t5,-8(a5)
    1204:	06d7f663          	bgeu	a5,a3,1270 <memcpy+0x248>
    1208:	0005bf83          	ld	t6,0(a1)
    120c:	04058593          	addi	a1,a1,64
    1210:	04078793          	addi	a5,a5,64
    1214:	fdf7b023          	sd	t6,-64(a5)
    1218:	fc85b283          	ld	t0,-56(a1)
    121c:	fc57b423          	sd	t0,-56(a5)
    1220:	fd05b303          	ld	t1,-48(a1)
    1224:	fc67b823          	sd	t1,-48(a5)
    1228:	fd85b703          	ld	a4,-40(a1)
    122c:	fce7bc23          	sd	a4,-40(a5)
    1230:	fe05b603          	ld	a2,-32(a1)
    1234:	fec7b023          	sd	a2,-32(a5)
    1238:	fe85b383          	ld	t2,-24(a1)
    123c:	fe77b423          	sd	t2,-24(a5)
    1240:	ff05b803          	ld	a6,-16(a1)
    1244:	ff07b823          	sd	a6,-16(a5)
    1248:	ff85b883          	ld	a7,-8(a1)
    124c:	ff17bc23          	sd	a7,-8(a5)
    1250:	fad7ece3          	bltu	a5,a3,1208 <memcpy+0x1e0>
    1254:	00008067          	ret
    1258:	0005b603          	ld	a2,0(a1)
    125c:	00878793          	addi	a5,a5,8
    1260:	00858593          	addi	a1,a1,8
    1264:	fec7bc23          	sd	a2,-8(a5)
    1268:	f3dff06f          	j	11a4 <memcpy+0x17c>
    126c:	00008067          	ret
    1270:	00008067          	ret
    1274:	00008067          	ret

0000000000001278 <memset>:
    1278:	ff010113          	addi	sp,sp,-16
    127c:	00c567b3          	or	a5,a0,a2
    1280:	00113423          	sd	ra,8(sp)
    1284:	00813023          	sd	s0,0(sp)
    1288:	0077f093          	andi	ra,a5,7
    128c:	00050413          	mv	s0,a0
    1290:	00c50733          	add	a4,a0,a2
    1294:	02008263          	beqz	ra,12b8 <memset+0x40>
    1298:	00e57663          	bgeu	a0,a4,12a4 <memset+0x2c>
    129c:	0ff5f593          	zext.b	a1,a1
    12a0:	fd9ff0ef          	jal	ra,1278 <memset>
    12a4:	00813083          	ld	ra,8(sp)
    12a8:	00040513          	mv	a0,s0
    12ac:	00013403          	ld	s0,0(sp)
    12b0:	01010113          	addi	sp,sp,16
    12b4:	00008067          	ret
    12b8:	0ff5f593          	zext.b	a1,a1
    12bc:	00000297          	auipc	t0,0x0
    12c0:	5242b283          	ld	t0,1316(t0) # 17e0 <_last+0x104>
    12c4:	02558333          	mul	t1,a1,t0
    12c8:	fce57ee3          	bgeu	a0,a4,12a4 <memset+0x2c>
    12cc:	fff54693          	not	a3,a0
    12d0:	00d703b3          	add	t2,a4,a3
    12d4:	0033d513          	srli	a0,t2,0x3
    12d8:	00840793          	addi	a5,s0,8
    12dc:	fe67bc23          	sd	t1,-8(a5)
    12e0:	00757813          	andi	a6,a0,7
    12e4:	fce7f0e3          	bgeu	a5,a4,12a4 <memset+0x2c>
    12e8:	06080463          	beqz	a6,1350 <memset+0xd8>
    12ec:	00100613          	li	a2,1
    12f0:	04c80a63          	beq	a6,a2,1344 <memset+0xcc>
    12f4:	00200893          	li	a7,2
    12f8:	05180263          	beq	a6,a7,133c <memset+0xc4>
    12fc:	00300e13          	li	t3,3
    1300:	03c80a63          	beq	a6,t3,1334 <memset+0xbc>
    1304:	00400e93          	li	t4,4
    1308:	03d80263          	beq	a6,t4,132c <memset+0xb4>
    130c:	00500f13          	li	t5,5
    1310:	01e80a63          	beq	a6,t5,1324 <memset+0xac>
    1314:	00600f93          	li	t6,6
    1318:	07f81263          	bne	a6,t6,137c <memset+0x104>
    131c:	0067b023          	sd	t1,0(a5)
    1320:	00878793          	addi	a5,a5,8
    1324:	0067b023          	sd	t1,0(a5)
    1328:	00878793          	addi	a5,a5,8
    132c:	0067b023          	sd	t1,0(a5)
    1330:	00878793          	addi	a5,a5,8
    1334:	0067b023          	sd	t1,0(a5)
    1338:	00878793          	addi	a5,a5,8
    133c:	0067b023          	sd	t1,0(a5)
    1340:	00878793          	addi	a5,a5,8
    1344:	00878793          	addi	a5,a5,8
    1348:	fe67bc23          	sd	t1,-8(a5)
    134c:	f4e7fce3          	bgeu	a5,a4,12a4 <memset+0x2c>
    1350:	0067b023          	sd	t1,0(a5)
    1354:	0067b423          	sd	t1,8(a5)
    1358:	0067b823          	sd	t1,16(a5)
    135c:	0067bc23          	sd	t1,24(a5)
    1360:	0267b023          	sd	t1,32(a5)
    1364:	0267b423          	sd	t1,40(a5)
    1368:	0267b823          	sd	t1,48(a5)
    136c:	0267bc23          	sd	t1,56(a5)
    1370:	04078793          	addi	a5,a5,64
    1374:	fce7eee3          	bltu	a5,a4,1350 <memset+0xd8>
    1378:	f2dff06f          	j	12a4 <memset+0x2c>
    137c:	0067b023          	sd	t1,0(a5)
    1380:	00878793          	addi	a5,a5,8
    1384:	f99ff06f          	j	131c <memset+0xa4>

0000000000001388 <strlen>:
    1388:	00054783          	lbu	a5,0(a0)
    138c:	00078e63          	beqz	a5,13a8 <strlen+0x20>
    1390:	00050293          	mv	t0,a0
    1394:	0012c703          	lbu	a4,1(t0)
    1398:	00128293          	addi	t0,t0,1
    139c:	fe071ce3          	bnez	a4,1394 <strlen+0xc>
    13a0:	40a28533          	sub	a0,t0,a0
    13a4:	00008067          	ret
    13a8:	00000513          	li	a0,0
    13ac:	00008067          	ret

00000000000013b0 <strnlen>:
    13b0:	00b506b3          	add	a3,a0,a1
    13b4:	00050793          	mv	a5,a0
    13b8:	10058a63          	beqz	a1,14cc <strnlen+0x11c>
    13bc:	40a68733          	sub	a4,a3,a0
    13c0:	00777293          	andi	t0,a4,7
    13c4:	08028063          	beqz	t0,1444 <strnlen+0x94>
    13c8:	00100613          	li	a2,1
    13cc:	06c28463          	beq	t0,a2,1434 <strnlen+0x84>
    13d0:	00200313          	li	t1,2
    13d4:	04628a63          	beq	t0,t1,1428 <strnlen+0x78>
    13d8:	00300393          	li	t2,3
    13dc:	04728063          	beq	t0,t2,141c <strnlen+0x6c>
    13e0:	00400593          	li	a1,4
    13e4:	02b28663          	beq	t0,a1,1410 <strnlen+0x60>
    13e8:	00500813          	li	a6,5
    13ec:	01028c63          	beq	t0,a6,1404 <strnlen+0x54>
    13f0:	00600893          	li	a7,6
    13f4:	0d129463          	bne	t0,a7,14bc <strnlen+0x10c>
    13f8:	0007ce83          	lbu	t4,0(a5)
    13fc:	0a0e8c63          	beqz	t4,14b4 <strnlen+0x104>
    1400:	00178793          	addi	a5,a5,1
    1404:	0007cf03          	lbu	t5,0(a5)
    1408:	0a0f0663          	beqz	t5,14b4 <strnlen+0x104>
    140c:	00178793          	addi	a5,a5,1
    1410:	0007cf83          	lbu	t6,0(a5)
    1414:	0a0f8063          	beqz	t6,14b4 <strnlen+0x104>
    1418:	00178793          	addi	a5,a5,1
    141c:	0007c703          	lbu	a4,0(a5)
    1420:	08070a63          	beqz	a4,14b4 <strnlen+0x104>
    1424:	00178793          	addi	a5,a5,1
    1428:	0007c283          	lbu	t0,0(a5)
    142c:	08028463          	beqz	t0,14b4 <strnlen+0x104>
    1430:	00178793          	addi	a5,a5,1
    1434:	0007c603          	lbu	a2,0(a5)
    1438:	06060e63          	beqz	a2,14b4 <strnlen+0x104>
    143c:	00178793          	addi	a5,a5,1
    1440:	06f68663          	beq	a3,a5,14ac <strnlen+0xfc>
    1444:	0007c303          	lbu	t1,0(a5)
    1448:	06030663          	beqz	t1,14b4 <strnlen+0x104>
    144c:	0017c383          	lbu	t2,1(a5)
    1450:	00178793          	addi	a5,a5,1
    1454:	00078593          	mv	a1,a5
    1458:	04038e63          	beqz	t2,14b4 <strnlen+0x104>
    145c:	0017c803          	lbu	a6,1(a5)
    1460:	00178793          	addi	a5,a5,1
    1464:	04080863          	beqz	a6,14b4 <strnlen+0x104>
    1468:	0025c883          	lbu	a7,2(a1)
    146c:	00258793          	addi	a5,a1,2
    1470:	04088263          	beqz	a7,14b4 <strnlen+0x104>
    1474:	0035ce03          	lbu	t3,3(a1)
    1478:	00358793          	addi	a5,a1,3
    147c:	020e0c63          	beqz	t3,14b4 <strnlen+0x104>
    1480:	0045ce83          	lbu	t4,4(a1)
    1484:	00458793          	addi	a5,a1,4
    1488:	020e8663          	beqz	t4,14b4 <strnlen+0x104>
    148c:	0055cf03          	lbu	t5,5(a1)
    1490:	00558793          	addi	a5,a1,5
    1494:	020f0063          	beqz	t5,14b4 <strnlen+0x104>
    1498:	0065cf83          	lbu	t6,6(a1)
    149c:	00658793          	addi	a5,a1,6
    14a0:	000f8a63          	beqz	t6,14b4 <strnlen+0x104>
    14a4:	00758793          	addi	a5,a1,7
    14a8:	f8f69ee3          	bne	a3,a5,1444 <strnlen+0x94>
    14ac:	40a68533          	sub	a0,a3,a0
    14b0:	00008067          	ret
    14b4:	40a78533          	sub	a0,a5,a0
    14b8:	00008067          	ret
    14bc:	00054e03          	lbu	t3,0(a0)
    14c0:	fe0e0ae3          	beqz	t3,14b4 <strnlen+0x104>
    14c4:	00150793          	addi	a5,a0,1
    14c8:	f31ff06f          	j	13f8 <strnlen+0x48>
    14cc:	00000513          	li	a0,0
    14d0:	00008067          	ret

00000000000014d4 <strcmp>:
    14d4:	00054783          	lbu	a5,0(a0)
    14d8:	00158593          	addi	a1,a1,1
    14dc:	00150513          	addi	a0,a0,1
    14e0:	fff5c703          	lbu	a4,-1(a1)
    14e4:	00078a63          	beqz	a5,14f8 <strcmp+0x24>
    14e8:	fee786e3          	beq	a5,a4,14d4 <strcmp>
    14ec:	0007851b          	sext.w	a0,a5
    14f0:	40e5053b          	subw	a0,a0,a4
    14f4:	00008067          	ret
    14f8:	00000513          	li	a0,0
    14fc:	ff5ff06f          	j	14f0 <strcmp+0x1c>

0000000000001500 <strcpy>:
    1500:	00050793          	mv	a5,a0
    1504:	0005c703          	lbu	a4,0(a1)
    1508:	00178793          	addi	a5,a5,1
    150c:	00158593          	addi	a1,a1,1
    1510:	fee78fa3          	sb	a4,-1(a5)
    1514:	fe0718e3          	bnez	a4,1504 <strcpy+0x4>
    1518:	00008067          	ret

000000000000151c <atol>:
    151c:	00054703          	lbu	a4,0(a0)
    1520:	02000693          	li	a3,32
    1524:	00050793          	mv	a5,a0
    1528:	00d71863          	bne	a4,a3,1538 <atol+0x1c>
    152c:	0017c703          	lbu	a4,1(a5)
    1530:	00178793          	addi	a5,a5,1
    1534:	fed70ce3          	beq	a4,a3,152c <atol+0x10>
    1538:	02d00293          	li	t0,45
    153c:	06570063          	beq	a4,t0,159c <atol+0x80>
    1540:	02b00313          	li	t1,43
    1544:	04670063          	beq	a4,t1,1584 <atol+0x68>
    1548:	0007c383          	lbu	t2,0(a5)
    154c:	00000593          	li	a1,0
    1550:	04038263          	beqz	t2,1594 <atol+0x78>
    1554:	00000513          	li	a0,0
    1558:	00178793          	addi	a5,a5,1
    155c:	fd03861b          	addiw	a2,t2,-48
    1560:	00251813          	slli	a6,a0,0x2
    1564:	0007c383          	lbu	t2,0(a5)
    1568:	00a80533          	add	a0,a6,a0
    156c:	00151893          	slli	a7,a0,0x1
    1570:	01160533          	add	a0,a2,a7
    1574:	fe0392e3          	bnez	t2,1558 <atol+0x3c>
    1578:	02058063          	beqz	a1,1598 <atol+0x7c>
    157c:	40a00533          	neg	a0,a0
    1580:	00008067          	ret
    1584:	0017c383          	lbu	t2,1(a5)
    1588:	00000593          	li	a1,0
    158c:	00178793          	addi	a5,a5,1
    1590:	fc0392e3          	bnez	t2,1554 <atol+0x38>
    1594:	00000513          	li	a0,0
    1598:	00008067          	ret
    159c:	0017c383          	lbu	t2,1(a5)
    15a0:	00100593          	li	a1,1
    15a4:	00178793          	addi	a5,a5,1
    15a8:	fa0396e3          	bnez	t2,1554 <atol+0x38>
    15ac:	00000513          	li	a0,0
    15b0:	fe9ff06f          	j	1598 <atol+0x7c>

00000000000015b4 <main>:
    15b4:	fb010113          	addi	sp,sp,-80
    15b8:	04113423          	sd	ra,72(sp)
    15bc:	00002797          	auipc	a5,0x2
    15c0:	32c78793          	addi	a5,a5,812 # 38e8 <g_nodeFreeList>
    15c4:	00002717          	auipc	a4,0x2
    15c8:	33470713          	addi	a4,a4,820 # 38f8 <g_nodePool>
    15cc:	00a00093          	li	ra,10
    15d0:	06300293          	li	t0,99
    15d4:	00002317          	auipc	t1,0x2
    15d8:	33430313          	addi	t1,t1,820 # 3908 <g_nodePool+0x10>
    15dc:	00002397          	auipc	t2,0x2
    15e0:	33c38393          	addi	t2,t2,828 # 3918 <g_nodePool+0x20>
    15e4:	00100613          	li	a2,1
    15e8:	00002697          	auipc	a3,0x2
    15ec:	34068693          	addi	a3,a3,832 # 3928 <g_nodePool+0x30>
    15f0:	00e7b423          	sd	a4,8(a5)
    15f4:	0017a023          	sw	ra,0(a5)
    15f8:	0a57a023          	sw	t0,160(a5)
    15fc:	00002097          	auipc	ra,0x2
    1600:	36c08093          	addi	ra,ra,876 # 3968 <g_nodePool+0x70>
    1604:	0067bc23          	sd	t1,24(a5)
    1608:	0277b423          	sd	t2,40(a5)
    160c:	02c7a023          	sw	a2,32(a5)
    1610:	02d7bc23          	sd	a3,56(a5)
    1614:	00200813          	li	a6,2
    1618:	00002897          	auipc	a7,0x2
    161c:	32088893          	addi	a7,a7,800 # 3938 <g_nodePool+0x40>
    1620:	00300e13          	li	t3,3
    1624:	00002e97          	auipc	t4,0x2
    1628:	324e8e93          	addi	t4,t4,804 # 3948 <g_nodePool+0x50>
    162c:	00400f13          	li	t5,4
    1630:	00002f97          	auipc	t6,0x2
    1634:	328f8f93          	addi	t6,t6,808 # 3958 <g_nodePool+0x60>
    1638:	00500713          	li	a4,5
    163c:	00600293          	li	t0,6
    1640:	00002317          	auipc	t1,0x2
    1644:	33830313          	addi	t1,t1,824 # 3978 <g_nodePool+0x80>
    1648:	00700393          	li	t2,7
    164c:	00002617          	auipc	a2,0x2
    1650:	33c60613          	addi	a2,a2,828 # 3988 <g_nodePool+0x90>
    1654:	00800693          	li	a3,8
    1658:	00a00593          	li	a1,10
    165c:	00810513          	addi	a0,sp,8
    1660:	0617bc23          	sd	ra,120(a5)
    1664:	0a07b423          	sd	zero,168(a5)
    1668:	0007a823          	sw	zero,16(a5)
    166c:	0307a823          	sw	a6,48(a5)
    1670:	0517b423          	sd	a7,72(a5)
    1674:	05c7a023          	sw	t3,64(a5)
    1678:	05d7bc23          	sd	t4,88(a5)
    167c:	05e7a823          	sw	t5,80(a5)
    1680:	07f7b423          	sd	t6,104(a5)
    1684:	06e7a023          	sw	a4,96(a5)
    1688:	0657a823          	sw	t0,112(a5)
    168c:	0867b423          	sd	t1,136(a5)
    1690:	0877a023          	sw	t2,128(a5)
    1694:	08c7bc23          	sd	a2,152(a5)
    1698:	08d7a823          	sw	a3,144(a5)
    169c:	c55fe0ef          	jal	ra,2f0 <towers_init>
    16a0:	00810513          	addi	a0,sp,8
    16a4:	e11fe0ef          	jal	ra,4b4 <towers_clear>
    16a8:	00810513          	addi	a0,sp,8
    16ac:	8e9ff0ef          	jal	ra,f94 <towers_solve>
    16b0:	00810513          	addi	a0,sp,8
    16b4:	8f5ff0ef          	jal	ra,fa8 <towers_verify>
    16b8:	04813083          	ld	ra,72(sp)
    16bc:	05010113          	addi	sp,sp,80
    16c0:	00008067          	ret

00000000000016c4 <end>:
    16c4:	00000013          	nop
    16c8:	00000013          	nop
    16cc:	00000013          	nop
    16d0:	00000013          	nop
    16d4:	00000013          	nop
    16d8:	00000013          	nop

00000000000016dc <_last>:
    16dc:	fe9ff06f          	j	16c4 <end>
