
vvadd.riscv:     file format elf64-littleriscv


Disassembly of section .text:

0000000000000000 <_start>:
   0:	00000093          	li	ra,0
   4:	00000113          	li	sp,0
   8:	00000193          	li	gp,0
   c:	00000213          	li	tp,0
  10:	00000293          	li	t0,0
  14:	00000313          	li	t1,0
  18:	00000393          	li	t2,0
  1c:	00000413          	li	s0,0
  20:	00000493          	li	s1,0
  24:	00000513          	li	a0,0
  28:	00000593          	li	a1,0
  2c:	00000613          	li	a2,0
  30:	00000693          	li	a3,0
  34:	00000713          	li	a4,0
  38:	00000793          	li	a5,0
  3c:	00000813          	li	a6,0
  40:	00000893          	li	a7,0
  44:	00000913          	li	s2,0
  48:	00000993          	li	s3,0
  4c:	00000a13          	li	s4,0
  50:	00000a93          	li	s5,0
  54:	00000b13          	li	s6,0
  58:	00000b93          	li	s7,0
  5c:	00000c13          	li	s8,0
  60:	00000c93          	li	s9,0
  64:	00000d13          	li	s10,0
  68:	00000d93          	li	s11,0
  6c:	00000e13          	li	t3,0
  70:	00000e93          	li	t4,0
  74:	00000f13          	li	t5,0
  78:	00000f93          	li	t6,0
  7c:	00005117          	auipc	sp,0x5
  80:	41c10113          	addi	sp,sp,1052 # 5498 <STACK>
  84:	250000ef          	jal	ra,2d4 <main>
  88:	3080006f          	j	390 <end>

000000000000008c <vvadd>:
  8c:	02a05663          	blez	a0,b8 <vvadd+0x2c>
  90:	00251513          	slli	a0,a0,0x2
  94:	00a58533          	add	a0,a1,a0
  98:	0005a703          	lw	a4,0(a1)
  9c:	00062783          	lw	a5,0(a2)
  a0:	00458593          	addi	a1,a1,4
  a4:	00460613          	addi	a2,a2,4
  a8:	00e787bb          	addw	a5,a5,a4
  ac:	00f6a023          	sw	a5,0(a3)
  b0:	00468693          	addi	a3,a3,4
  b4:	fea592e3          	bne	a1,a0,98 <vvadd+0xc>
  b8:	00008067          	ret

00000000000000bc <setStats>:
  bc:	00008067          	ret

00000000000000c0 <memcpy>:
  c0:	00b567b3          	or	a5,a0,a1
  c4:	00c7e7b3          	or	a5,a5,a2
  c8:	0077f793          	andi	a5,a5,7
  cc:	00c506b3          	add	a3,a0,a2
  d0:	02078463          	beqz	a5,f8 <memcpy+0x38>
  d4:	00c58633          	add	a2,a1,a2
  d8:	00050793          	mv	a5,a0
  dc:	02d57e63          	bgeu	a0,a3,118 <memcpy+0x58>
  e0:	0005c703          	lbu	a4,0(a1)
  e4:	00158593          	addi	a1,a1,1
  e8:	00178793          	addi	a5,a5,1
  ec:	fee78fa3          	sb	a4,-1(a5)
  f0:	fec598e3          	bne	a1,a2,e0 <memcpy+0x20>
  f4:	00008067          	ret
  f8:	fed57ee3          	bgeu	a0,a3,f4 <memcpy+0x34>
  fc:	00050793          	mv	a5,a0
 100:	0005b703          	ld	a4,0(a1)
 104:	00878793          	addi	a5,a5,8
 108:	00858593          	addi	a1,a1,8
 10c:	fee7bc23          	sd	a4,-8(a5)
 110:	fed7e8e3          	bltu	a5,a3,100 <memcpy+0x40>
 114:	00008067          	ret
 118:	00008067          	ret

000000000000011c <memset>:
 11c:	ff010113          	addi	sp,sp,-16
 120:	00c567b3          	or	a5,a0,a2
 124:	00813023          	sd	s0,0(sp)
 128:	00113423          	sd	ra,8(sp)
 12c:	0077f793          	andi	a5,a5,7
 130:	00050413          	mv	s0,a0
 134:	00c50733          	add	a4,a0,a2
 138:	02078263          	beqz	a5,15c <memset+0x40>
 13c:	00e57663          	bgeu	a0,a4,148 <memset+0x2c>
 140:	0ff5f593          	zext.b	a1,a1
 144:	fd9ff0ef          	jal	ra,11c <memset>
 148:	00813083          	ld	ra,8(sp)
 14c:	00040513          	mv	a0,s0
 150:	00013403          	ld	s0,0(sp)
 154:	01010113          	addi	sp,sp,16
 158:	00008067          	ret
 15c:	0ff5f593          	zext.b	a1,a1
 160:	00003797          	auipc	a5,0x3
 164:	2307b783          	ld	a5,560(a5) # 3390 <input1_data+0xfa0>
 168:	02f585b3          	mul	a1,a1,a5
 16c:	fce57ee3          	bgeu	a0,a4,148 <memset+0x2c>
 170:	00050793          	mv	a5,a0
 174:	00878793          	addi	a5,a5,8
 178:	feb7bc23          	sd	a1,-8(a5)
 17c:	fee7ece3          	bltu	a5,a4,174 <memset+0x58>
 180:	00813083          	ld	ra,8(sp)
 184:	00040513          	mv	a0,s0
 188:	00013403          	ld	s0,0(sp)
 18c:	01010113          	addi	sp,sp,16
 190:	00008067          	ret

0000000000000194 <strlen>:
 194:	00054783          	lbu	a5,0(a0)
 198:	00078e63          	beqz	a5,1b4 <strlen+0x20>
 19c:	00050793          	mv	a5,a0
 1a0:	0017c703          	lbu	a4,1(a5)
 1a4:	00178793          	addi	a5,a5,1
 1a8:	fe071ce3          	bnez	a4,1a0 <strlen+0xc>
 1ac:	40a78533          	sub	a0,a5,a0
 1b0:	00008067          	ret
 1b4:	00000513          	li	a0,0
 1b8:	00008067          	ret

00000000000001bc <strnlen>:
 1bc:	00b506b3          	add	a3,a0,a1
 1c0:	00050793          	mv	a5,a0
 1c4:	00059863          	bnez	a1,1d4 <strnlen+0x18>
 1c8:	0240006f          	j	1ec <strnlen+0x30>
 1cc:	00178793          	addi	a5,a5,1
 1d0:	00f68a63          	beq	a3,a5,1e4 <strnlen+0x28>
 1d4:	0007c703          	lbu	a4,0(a5)
 1d8:	fe071ae3          	bnez	a4,1cc <strnlen+0x10>
 1dc:	40a78533          	sub	a0,a5,a0
 1e0:	00008067          	ret
 1e4:	40a68533          	sub	a0,a3,a0
 1e8:	00008067          	ret
 1ec:	00000513          	li	a0,0
 1f0:	00008067          	ret

00000000000001f4 <strcmp>:
 1f4:	00054783          	lbu	a5,0(a0)
 1f8:	00158593          	addi	a1,a1,1
 1fc:	00150513          	addi	a0,a0,1
 200:	fff5c703          	lbu	a4,-1(a1)
 204:	00078a63          	beqz	a5,218 <strcmp+0x24>
 208:	fee786e3          	beq	a5,a4,1f4 <strcmp>
 20c:	0007851b          	sext.w	a0,a5
 210:	40e5053b          	subw	a0,a0,a4
 214:	00008067          	ret
 218:	00000513          	li	a0,0
 21c:	ff5ff06f          	j	210 <strcmp+0x1c>

0000000000000220 <strcpy>:
 220:	00050793          	mv	a5,a0
 224:	0005c703          	lbu	a4,0(a1)
 228:	00178793          	addi	a5,a5,1
 22c:	00158593          	addi	a1,a1,1
 230:	fee78fa3          	sb	a4,-1(a5)
 234:	fe0718e3          	bnez	a4,224 <strcpy+0x4>
 238:	00008067          	ret

000000000000023c <atol>:
 23c:	00054703          	lbu	a4,0(a0)
 240:	02000693          	li	a3,32
 244:	00050793          	mv	a5,a0
 248:	00d71863          	bne	a4,a3,258 <atol+0x1c>
 24c:	0017c703          	lbu	a4,1(a5)
 250:	00178793          	addi	a5,a5,1
 254:	fed70ce3          	beq	a4,a3,24c <atol+0x10>
 258:	02d00693          	li	a3,45
 25c:	06d70063          	beq	a4,a3,2bc <atol+0x80>
 260:	02b00693          	li	a3,43
 264:	04d70063          	beq	a4,a3,2a4 <atol+0x68>
 268:	0007c683          	lbu	a3,0(a5)
 26c:	00000593          	li	a1,0
 270:	04068263          	beqz	a3,2b4 <atol+0x78>
 274:	00000513          	li	a0,0
 278:	00178793          	addi	a5,a5,1
 27c:	00251713          	slli	a4,a0,0x2
 280:	fd06861b          	addiw	a2,a3,-48
 284:	0007c683          	lbu	a3,0(a5)
 288:	00a70733          	add	a4,a4,a0
 28c:	00171713          	slli	a4,a4,0x1
 290:	00e60533          	add	a0,a2,a4
 294:	fe0692e3          	bnez	a3,278 <atol+0x3c>
 298:	02058063          	beqz	a1,2b8 <atol+0x7c>
 29c:	40a00533          	neg	a0,a0
 2a0:	00008067          	ret
 2a4:	0017c683          	lbu	a3,1(a5)
 2a8:	00000593          	li	a1,0
 2ac:	00178793          	addi	a5,a5,1
 2b0:	fc0692e3          	bnez	a3,274 <atol+0x38>
 2b4:	00000513          	li	a0,0
 2b8:	00008067          	ret
 2bc:	0017c683          	lbu	a3,1(a5)
 2c0:	00100593          	li	a1,1
 2c4:	00178793          	addi	a5,a5,1
 2c8:	fa0696e3          	bnez	a3,274 <atol+0x38>
 2cc:	00000513          	li	a0,0
 2d0:	fe9ff06f          	j	2b8 <atol+0x7c>

00000000000002d4 <main>:
 2d4:	fffff2b7          	lui	t0,0xfffff
 2d8:	fffff7b7          	lui	a5,0xfffff
 2dc:	00001737          	lui	a4,0x1
 2e0:	06078793          	addi	a5,a5,96 # fffffffffffff060 <STACK+0xffffffffffff9bc8>
 2e4:	06028293          	addi	t0,t0,96 # fffffffffffff060 <STACK+0xffffffffffff9bc8>
 2e8:	fa070713          	addi	a4,a4,-96 # fa0 <verify_data+0xaf0>
 2ec:	00f70733          	add	a4,a4,a5
 2f0:	00510133          	add	sp,sp,t0
 2f4:	002707b3          	add	a5,a4,sp
 2f8:	00001597          	auipc	a1,0x1
 2fc:	15858593          	addi	a1,a1,344 # 1450 <input2_data>
 300:	00002717          	auipc	a4,0x2
 304:	0f070713          	addi	a4,a4,240 # 23f0 <input1_data>
 308:	00003817          	auipc	a6,0x3
 30c:	08880813          	addi	a6,a6,136 # 3390 <input1_data+0xfa0>
 310:	00078613          	mv	a2,a5
 314:	00072503          	lw	a0,0(a4)
 318:	0005a683          	lw	a3,0(a1)
 31c:	00470713          	addi	a4,a4,4
 320:	00458593          	addi	a1,a1,4
 324:	00a686bb          	addw	a3,a3,a0
 328:	00d62023          	sw	a3,0(a2)
 32c:	00460613          	addi	a2,a2,4
 330:	ff0712e3          	bne	a4,a6,314 <main+0x40>
 334:	4b000693          	li	a3,1200
 338:	00000513          	li	a0,0
 33c:	3e800893          	li	a7,1000
 340:	0140006f          	j	354 <main+0x80>
 344:	0025051b          	addiw	a0,a0,2
 348:	03071663          	bne	a4,a6,374 <main+0xa0>
 34c:	00868693          	addi	a3,a3,8
 350:	03150a63          	beq	a0,a7,384 <main+0xb0>
 354:	0007a603          	lw	a2,0(a5)
 358:	0006a583          	lw	a1,0(a3)
 35c:	0047a703          	lw	a4,4(a5)
 360:	0046a803          	lw	a6,4(a3)
 364:	00878793          	addi	a5,a5,8
 368:	0007071b          	sext.w	a4,a4
 36c:	fcc58ce3          	beq	a1,a2,344 <main+0x70>
 370:	0015051b          	addiw	a0,a0,1
 374:	000012b7          	lui	t0,0x1
 378:	fa028293          	addi	t0,t0,-96 # fa0 <verify_data+0xaf0>
 37c:	00510133          	add	sp,sp,t0
 380:	00008067          	ret
 384:	00bc6537          	lui	a0,0xbc6
 388:	14e50513          	addi	a0,a0,334 # bc614e <STACK+0xbc0cb6>
 38c:	fe9ff06f          	j	374 <main+0xa0>

0000000000000390 <end>:
 390:	00000013          	nop
 394:	00000013          	nop
 398:	00000013          	nop
 39c:	00000013          	nop
 3a0:	00000013          	nop
 3a4:	00000013          	nop

00000000000003a8 <_last>:
 3a8:	fe9ff06f          	j	390 <end>
